   1               		.file	"cc1101q1.c"
   2               	__SP_H__ = 0x3e
   3               	__SP_L__ = 0x3d
   4               	__SREG__ = 0x3f
   5               	__tmp_reg__ = 0
   6               	__zero_reg__ = 1
   8               		.text
   9               	.Ltext0:
 126               	.global	CC1101
 128               	CC1101:
   1:/Users/davide/Documents/NQM_WORK/MinimizedBoard/Attiny48/i2ctest/CC1101/CC1101/cc1101q1.c **** /**
   2:/Users/davide/Documents/NQM_WORK/MinimizedBoard/Attiny48/i2ctest/CC1101/CC1101/cc1101q1.c ****  * Copyright (c) 2011 panStamp <contact@panstamp.com>
   3:/Users/davide/Documents/NQM_WORK/MinimizedBoard/Attiny48/i2ctest/CC1101/CC1101/cc1101q1.c ****  *
   4:/Users/davide/Documents/NQM_WORK/MinimizedBoard/Attiny48/i2ctest/CC1101/CC1101/cc1101q1.c ****  * This file is part of the panStamp project.
   5:/Users/davide/Documents/NQM_WORK/MinimizedBoard/Attiny48/i2ctest/CC1101/CC1101/cc1101q1.c ****  *
   6:/Users/davide/Documents/NQM_WORK/MinimizedBoard/Attiny48/i2ctest/CC1101/CC1101/cc1101q1.c ****  * panStamp  is free software; you can redistribute it and/or modify
   7:/Users/davide/Documents/NQM_WORK/MinimizedBoard/Attiny48/i2ctest/CC1101/CC1101/cc1101q1.c ****  * it under the terms of the GNU Lesser General Public License as published by
   8:/Users/davide/Documents/NQM_WORK/MinimizedBoard/Attiny48/i2ctest/CC1101/CC1101/cc1101q1.c ****  * the Free Software Foundation; either version 3 of the License, or
   9:/Users/davide/Documents/NQM_WORK/MinimizedBoard/Attiny48/i2ctest/CC1101/CC1101/cc1101q1.c ****  * any later version.
  10:/Users/davide/Documents/NQM_WORK/MinimizedBoard/Attiny48/i2ctest/CC1101/CC1101/cc1101q1.c ****  *
  11:/Users/davide/Documents/NQM_WORK/MinimizedBoard/Attiny48/i2ctest/CC1101/CC1101/cc1101q1.c ****  * panStamp is distributed in the hope that it will be useful,
  12:/Users/davide/Documents/NQM_WORK/MinimizedBoard/Attiny48/i2ctest/CC1101/CC1101/cc1101q1.c ****  * but WITHOUT ANY WARRANTY; without even the implied warranty of
  13:/Users/davide/Documents/NQM_WORK/MinimizedBoard/Attiny48/i2ctest/CC1101/CC1101/cc1101q1.c ****  * MERCHANTABILITY or FITNESS FOR A PARTICULAR PURPOSE. See the
  14:/Users/davide/Documents/NQM_WORK/MinimizedBoard/Attiny48/i2ctest/CC1101/CC1101/cc1101q1.c ****  * GNU Lesser General Public License for more details.
  15:/Users/davide/Documents/NQM_WORK/MinimizedBoard/Attiny48/i2ctest/CC1101/CC1101/cc1101q1.c ****  *
  16:/Users/davide/Documents/NQM_WORK/MinimizedBoard/Attiny48/i2ctest/CC1101/CC1101/cc1101q1.c ****  * You should have received a copy of the GNU Lesser General Public License
  17:/Users/davide/Documents/NQM_WORK/MinimizedBoard/Attiny48/i2ctest/CC1101/CC1101/cc1101q1.c ****  * along with panStamp; if not, write to the Free Software
  18:/Users/davide/Documents/NQM_WORK/MinimizedBoard/Attiny48/i2ctest/CC1101/CC1101/cc1101q1.c ****  * Foundation, Inc., 51 Franklin St, Fifth Floor, Boston, MA  02110-1301
  19:/Users/davide/Documents/NQM_WORK/MinimizedBoard/Attiny48/i2ctest/CC1101/CC1101/cc1101q1.c ****  * USA
  20:/Users/davide/Documents/NQM_WORK/MinimizedBoard/Attiny48/i2ctest/CC1101/CC1101/cc1101q1.c ****  *
  21:/Users/davide/Documents/NQM_WORK/MinimizedBoard/Attiny48/i2ctest/CC1101/CC1101/cc1101q1.c ****  * Author: Daniel Berenguer
  22:/Users/davide/Documents/NQM_WORK/MinimizedBoard/Attiny48/i2ctest/CC1101/CC1101/cc1101q1.c ****  * Creation date: 03/03/2011
  23:/Users/davide/Documents/NQM_WORK/MinimizedBoard/Attiny48/i2ctest/CC1101/CC1101/cc1101q1.c ****  */
  24:/Users/davide/Documents/NQM_WORK/MinimizedBoard/Attiny48/i2ctest/CC1101/CC1101/cc1101q1.c **** 
  25:/Users/davide/Documents/NQM_WORK/MinimizedBoard/Attiny48/i2ctest/CC1101/CC1101/cc1101q1.c **** #include "cc.h"
  26:/Users/davide/Documents/NQM_WORK/MinimizedBoard/Attiny48/i2ctest/CC1101/CC1101/cc1101q1.c **** #include <avr/eeprom.h>
  27:/Users/davide/Documents/NQM_WORK/MinimizedBoard/Attiny48/i2ctest/CC1101/CC1101/cc1101q1.c **** #include <avr/io.h>
  28:/Users/davide/Documents/NQM_WORK/MinimizedBoard/Attiny48/i2ctest/CC1101/CC1101/cc1101q1.c **** #include <avr/interrupt.h>
  29:/Users/davide/Documents/NQM_WORK/MinimizedBoard/Attiny48/i2ctest/CC1101/CC1101/cc1101q1.c **** #include <inttypes.h>
  30:/Users/davide/Documents/NQM_WORK/MinimizedBoard/Attiny48/i2ctest/CC1101/CC1101/cc1101q1.c **** #include <avr/pgmspace.h>
  31:/Users/davide/Documents/NQM_WORK/MinimizedBoard/Attiny48/i2ctest/CC1101/CC1101/cc1101q1.c **** #include "external_interrupt.h"
  32:/Users/davide/Documents/NQM_WORK/MinimizedBoard/Attiny48/i2ctest/CC1101/CC1101/cc1101q1.c **** //#include "nvolat.h"
  33:/Users/davide/Documents/NQM_WORK/MinimizedBoard/Attiny48/i2ctest/CC1101/CC1101/cc1101q1.c **** 
  34:/Users/davide/Documents/NQM_WORK/MinimizedBoard/Attiny48/i2ctest/CC1101/CC1101/cc1101q1.c **** //----------------------------------------------------------------------------------------
  35:/Users/davide/Documents/NQM_WORK/MinimizedBoard/Attiny48/i2ctest/CC1101/CC1101/cc1101q1.c **** #define EXTERNAL_NUM_INTERRUPTS 2
  36:/Users/davide/Documents/NQM_WORK/MinimizedBoard/Attiny48/i2ctest/CC1101/CC1101/cc1101q1.c **** typedef void (*voidFuncPtr)(void);
  37:/Users/davide/Documents/NQM_WORK/MinimizedBoard/Attiny48/i2ctest/CC1101/CC1101/cc1101q1.c **** 
  38:/Users/davide/Documents/NQM_WORK/MinimizedBoard/Attiny48/i2ctest/CC1101/CC1101/cc1101q1.c **** #ifdef __cplusplus
  39:/Users/davide/Documents/NQM_WORK/MinimizedBoard/Attiny48/i2ctest/CC1101/CC1101/cc1101q1.c **** } // extern "C"
  40:/Users/davide/Documents/NQM_WORK/MinimizedBoard/Attiny48/i2ctest/CC1101/CC1101/cc1101q1.c **** #endif
  41:/Users/davide/Documents/NQM_WORK/MinimizedBoard/Attiny48/i2ctest/CC1101/CC1101/cc1101q1.c **** static volatile voidFuncPtr intFunc[24];
  42:/Users/davide/Documents/NQM_WORK/MinimizedBoard/Attiny48/i2ctest/CC1101/CC1101/cc1101q1.c **** //-----------------------------------------------------------------------------------------
  43:/Users/davide/Documents/NQM_WORK/MinimizedBoard/Attiny48/i2ctest/CC1101/CC1101/cc1101q1.c **** 
  44:/Users/davide/Documents/NQM_WORK/MinimizedBoard/Attiny48/i2ctest/CC1101/CC1101/cc1101q1.c **** /**
  45:/Users/davide/Documents/NQM_WORK/MinimizedBoard/Attiny48/i2ctest/CC1101/CC1101/cc1101q1.c ****  * PATABLE
  46:/Users/davide/Documents/NQM_WORK/MinimizedBoard/Attiny48/i2ctest/CC1101/CC1101/cc1101q1.c ****  */
  47:/Users/davide/Documents/NQM_WORK/MinimizedBoard/Attiny48/i2ctest/CC1101/CC1101/cc1101q1.c **** //const byte paTable[8] = {0x60, 0x60, 0x60, 0x60, 0x60, 0x60, 0x60, 0x60};
  48:/Users/davide/Documents/NQM_WORK/MinimizedBoard/Attiny48/i2ctest/CC1101/CC1101/cc1101q1.c **** 
  49:/Users/davide/Documents/NQM_WORK/MinimizedBoard/Attiny48/i2ctest/CC1101/CC1101/cc1101q1.c **** /**
  50:/Users/davide/Documents/NQM_WORK/MinimizedBoard/Attiny48/i2ctest/CC1101/CC1101/cc1101q1.c ****  * CC1101
  51:/Users/davide/Documents/NQM_WORK/MinimizedBoard/Attiny48/i2ctest/CC1101/CC1101/cc1101q1.c ****  *
  52:/Users/davide/Documents/NQM_WORK/MinimizedBoard/Attiny48/i2ctest/CC1101/CC1101/cc1101q1.c ****  * Class constructor
  53:/Users/davide/Documents/NQM_WORK/MinimizedBoard/Attiny48/i2ctest/CC1101/CC1101/cc1101q1.c ****  */
  54:/Users/davide/Documents/NQM_WORK/MinimizedBoard/Attiny48/i2ctest/CC1101/CC1101/cc1101q1.c **** void CC1101(void)
  55:/Users/davide/Documents/NQM_WORK/MinimizedBoard/Attiny48/i2ctest/CC1101/CC1101/cc1101q1.c **** {
 130               	.LM0:
 131               	.LFBB1:
 132               	/* prologue: function */
 133               	/* frame size = 0 */
 134               	/* stack size = 0 */
 135               	.L__stack_usage = 0
  56:/Users/davide/Documents/NQM_WORK/MinimizedBoard/Attiny48/i2ctest/CC1101/CC1101/cc1101q1.c ****     paTableByte = PA_LowPower;            // Priority = Low power
 137               	.LM1:
 138 0000 80E6      		ldi r24,lo8(96)
 139 0002 8093 0000 		sts paTableByte,r24
 140 0006 0895      		ret
 142               	.Lscope1:
 144               	.global	wakeUp
 146               	wakeUp:
  57:/Users/davide/Documents/NQM_WORK/MinimizedBoard/Attiny48/i2ctest/CC1101/CC1101/cc1101q1.c **** }
  58:/Users/davide/Documents/NQM_WORK/MinimizedBoard/Attiny48/i2ctest/CC1101/CC1101/cc1101q1.c **** 
  59:/Users/davide/Documents/NQM_WORK/MinimizedBoard/Attiny48/i2ctest/CC1101/CC1101/cc1101q1.c **** /**
  60:/Users/davide/Documents/NQM_WORK/MinimizedBoard/Attiny48/i2ctest/CC1101/CC1101/cc1101q1.c ****  * wakeUp
  61:/Users/davide/Documents/NQM_WORK/MinimizedBoard/Attiny48/i2ctest/CC1101/CC1101/cc1101q1.c ****  *
  62:/Users/davide/Documents/NQM_WORK/MinimizedBoard/Attiny48/i2ctest/CC1101/CC1101/cc1101q1.c ****  * Wake up CC1101 from Power Down state
  63:/Users/davide/Documents/NQM_WORK/MinimizedBoard/Attiny48/i2ctest/CC1101/CC1101/cc1101q1.c ****  */
  64:/Users/davide/Documents/NQM_WORK/MinimizedBoard/Attiny48/i2ctest/CC1101/CC1101/cc1101q1.c **** void wakeUp(void)
  65:/Users/davide/Documents/NQM_WORK/MinimizedBoard/Attiny48/i2ctest/CC1101/CC1101/cc1101q1.c **** {
 148               	.LM2:
 149               	.LFBB2:
 150               	/* prologue: function */
 151               	/* frame size = 0 */
 152               	/* stack size = 0 */
 153               	.L__stack_usage = 0
  66:/Users/davide/Documents/NQM_WORK/MinimizedBoard/Attiny48/i2ctest/CC1101/CC1101/cc1101q1.c ****     cc1101_Select();                      // Select CC1101
 155               	.LM3:
 156 0008 2A98      		cbi 0x5,2
 157               	.L3:
  67:/Users/davide/Documents/NQM_WORK/MinimizedBoard/Attiny48/i2ctest/CC1101/CC1101/cc1101q1.c ****     wait_Miso();                          // Wait until MISO goes low
 159               	.LM4:
 160 000a 1C99      		sbic 0x3,4
 161 000c 00C0      		rjmp .L3
  68:/Users/davide/Documents/NQM_WORK/MinimizedBoard/Attiny48/i2ctest/CC1101/CC1101/cc1101q1.c ****     cc1101_Deselect();                    // Deselect CC1101
 163               	.LM5:
 164 000e 2A9A      		sbi 0x5,2
 165 0010 0895      		ret
 167               	.Lscope2:
 169               	.global	spiinit
 171               	spiinit:
  69:/Users/davide/Documents/NQM_WORK/MinimizedBoard/Attiny48/i2ctest/CC1101/CC1101/cc1101q1.c **** }
  70:/Users/davide/Documents/NQM_WORK/MinimizedBoard/Attiny48/i2ctest/CC1101/CC1101/cc1101q1.c **** 
  71:/Users/davide/Documents/NQM_WORK/MinimizedBoard/Attiny48/i2ctest/CC1101/CC1101/cc1101q1.c **** /**
  72:/Users/davide/Documents/NQM_WORK/MinimizedBoard/Attiny48/i2ctest/CC1101/CC1101/cc1101q1.c ****  * writeReg
  73:/Users/davide/Documents/NQM_WORK/MinimizedBoard/Attiny48/i2ctest/CC1101/CC1101/cc1101q1.c ****  *
  74:/Users/davide/Documents/NQM_WORK/MinimizedBoard/Attiny48/i2ctest/CC1101/CC1101/cc1101q1.c ****  * Write single register into the CC1101 IC via SPI
  75:/Users/davide/Documents/NQM_WORK/MinimizedBoard/Attiny48/i2ctest/CC1101/CC1101/cc1101q1.c ****  *
  76:/Users/davide/Documents/NQM_WORK/MinimizedBoard/Attiny48/i2ctest/CC1101/CC1101/cc1101q1.c ****  * 'regAddr'	Register address
  77:/Users/davide/Documents/NQM_WORK/MinimizedBoard/Attiny48/i2ctest/CC1101/CC1101/cc1101q1.c ****  * 'value'	Value to be writen
  78:/Users/davide/Documents/NQM_WORK/MinimizedBoard/Attiny48/i2ctest/CC1101/CC1101/cc1101q1.c ****  */
  79:/Users/davide/Documents/NQM_WORK/MinimizedBoard/Attiny48/i2ctest/CC1101/CC1101/cc1101q1.c **** void writeReg(byte regAddr, byte value)
  80:/Users/davide/Documents/NQM_WORK/MinimizedBoard/Attiny48/i2ctest/CC1101/CC1101/cc1101q1.c **** {
  81:/Users/davide/Documents/NQM_WORK/MinimizedBoard/Attiny48/i2ctest/CC1101/CC1101/cc1101q1.c ****     cc1101_Select();                      // Select CC1101
  82:/Users/davide/Documents/NQM_WORK/MinimizedBoard/Attiny48/i2ctest/CC1101/CC1101/cc1101q1.c ****     wait_Miso();                          // Wait until MISO goes low
  83:/Users/davide/Documents/NQM_WORK/MinimizedBoard/Attiny48/i2ctest/CC1101/CC1101/cc1101q1.c ****     spisend(regAddr);                    // Send register address
  84:/Users/davide/Documents/NQM_WORK/MinimizedBoard/Attiny48/i2ctest/CC1101/CC1101/cc1101q1.c ****     spisend(value);                      // Send value
  85:/Users/davide/Documents/NQM_WORK/MinimizedBoard/Attiny48/i2ctest/CC1101/CC1101/cc1101q1.c ****     cc1101_Deselect();                    // Deselect CC1101
  86:/Users/davide/Documents/NQM_WORK/MinimizedBoard/Attiny48/i2ctest/CC1101/CC1101/cc1101q1.c **** }
  87:/Users/davide/Documents/NQM_WORK/MinimizedBoard/Attiny48/i2ctest/CC1101/CC1101/cc1101q1.c **** 
  88:/Users/davide/Documents/NQM_WORK/MinimizedBoard/Attiny48/i2ctest/CC1101/CC1101/cc1101q1.c **** /**
  89:/Users/davide/Documents/NQM_WORK/MinimizedBoard/Attiny48/i2ctest/CC1101/CC1101/cc1101q1.c ****  * writeBurstReg
  90:/Users/davide/Documents/NQM_WORK/MinimizedBoard/Attiny48/i2ctest/CC1101/CC1101/cc1101q1.c ****  *
  91:/Users/davide/Documents/NQM_WORK/MinimizedBoard/Attiny48/i2ctest/CC1101/CC1101/cc1101q1.c ****  * Write multiple registers into the CC1101 IC via SPI
  92:/Users/davide/Documents/NQM_WORK/MinimizedBoard/Attiny48/i2ctest/CC1101/CC1101/cc1101q1.c ****  *
  93:/Users/davide/Documents/NQM_WORK/MinimizedBoard/Attiny48/i2ctest/CC1101/CC1101/cc1101q1.c ****  * 'regAddr'	Register address
  94:/Users/davide/Documents/NQM_WORK/MinimizedBoard/Attiny48/i2ctest/CC1101/CC1101/cc1101q1.c ****  * 'buffer'	Data to be writen
  95:/Users/davide/Documents/NQM_WORK/MinimizedBoard/Attiny48/i2ctest/CC1101/CC1101/cc1101q1.c ****  * 'len'	Data length
  96:/Users/davide/Documents/NQM_WORK/MinimizedBoard/Attiny48/i2ctest/CC1101/CC1101/cc1101q1.c ****  */
  97:/Users/davide/Documents/NQM_WORK/MinimizedBoard/Attiny48/i2ctest/CC1101/CC1101/cc1101q1.c **** void writeBurstReg(byte regAddr, byte* buffer, byte len)
  98:/Users/davide/Documents/NQM_WORK/MinimizedBoard/Attiny48/i2ctest/CC1101/CC1101/cc1101q1.c **** {
  99:/Users/davide/Documents/NQM_WORK/MinimizedBoard/Attiny48/i2ctest/CC1101/CC1101/cc1101q1.c ****     byte addr, i;
 100:/Users/davide/Documents/NQM_WORK/MinimizedBoard/Attiny48/i2ctest/CC1101/CC1101/cc1101q1.c ****     
 101:/Users/davide/Documents/NQM_WORK/MinimizedBoard/Attiny48/i2ctest/CC1101/CC1101/cc1101q1.c ****     addr = regAddr | WRITE_BURST;         // Enable burst transfer
 102:/Users/davide/Documents/NQM_WORK/MinimizedBoard/Attiny48/i2ctest/CC1101/CC1101/cc1101q1.c ****     cc1101_Select();                      // Select CC1101
 103:/Users/davide/Documents/NQM_WORK/MinimizedBoard/Attiny48/i2ctest/CC1101/CC1101/cc1101q1.c ****     wait_Miso();                          // Wait until MISO goes low
 104:/Users/davide/Documents/NQM_WORK/MinimizedBoard/Attiny48/i2ctest/CC1101/CC1101/cc1101q1.c ****     spisend(addr);                       // Send register address
 105:/Users/davide/Documents/NQM_WORK/MinimizedBoard/Attiny48/i2ctest/CC1101/CC1101/cc1101q1.c ****     
 106:/Users/davide/Documents/NQM_WORK/MinimizedBoard/Attiny48/i2ctest/CC1101/CC1101/cc1101q1.c ****     for(i=0 ; i<len ; i++)
 107:/Users/davide/Documents/NQM_WORK/MinimizedBoard/Attiny48/i2ctest/CC1101/CC1101/cc1101q1.c ****         spisend(buffer[i]);                // Send value
 108:/Users/davide/Documents/NQM_WORK/MinimizedBoard/Attiny48/i2ctest/CC1101/CC1101/cc1101q1.c ****     
 109:/Users/davide/Documents/NQM_WORK/MinimizedBoard/Attiny48/i2ctest/CC1101/CC1101/cc1101q1.c ****     cc1101_Deselect();                    // Deselect CC1101
 110:/Users/davide/Documents/NQM_WORK/MinimizedBoard/Attiny48/i2ctest/CC1101/CC1101/cc1101q1.c **** }
 111:/Users/davide/Documents/NQM_WORK/MinimizedBoard/Attiny48/i2ctest/CC1101/CC1101/cc1101q1.c **** 
 112:/Users/davide/Documents/NQM_WORK/MinimizedBoard/Attiny48/i2ctest/CC1101/CC1101/cc1101q1.c **** /**
 113:/Users/davide/Documents/NQM_WORK/MinimizedBoard/Attiny48/i2ctest/CC1101/CC1101/cc1101q1.c ****  * cmdStrobe
 114:/Users/davide/Documents/NQM_WORK/MinimizedBoard/Attiny48/i2ctest/CC1101/CC1101/cc1101q1.c ****  *
 115:/Users/davide/Documents/NQM_WORK/MinimizedBoard/Attiny48/i2ctest/CC1101/CC1101/cc1101q1.c ****  * Send command strobe to the CC1101 IC via SPI
 116:/Users/davide/Documents/NQM_WORK/MinimizedBoard/Attiny48/i2ctest/CC1101/CC1101/cc1101q1.c ****  *
 117:/Users/davide/Documents/NQM_WORK/MinimizedBoard/Attiny48/i2ctest/CC1101/CC1101/cc1101q1.c ****  * 'cmd'	Command strobe
 118:/Users/davide/Documents/NQM_WORK/MinimizedBoard/Attiny48/i2ctest/CC1101/CC1101/cc1101q1.c ****  */
 119:/Users/davide/Documents/NQM_WORK/MinimizedBoard/Attiny48/i2ctest/CC1101/CC1101/cc1101q1.c **** void cmdStrobe(byte cmd)
 120:/Users/davide/Documents/NQM_WORK/MinimizedBoard/Attiny48/i2ctest/CC1101/CC1101/cc1101q1.c **** {
 121:/Users/davide/Documents/NQM_WORK/MinimizedBoard/Attiny48/i2ctest/CC1101/CC1101/cc1101q1.c ****     cc1101_Select();                      // Select CC1101
 122:/Users/davide/Documents/NQM_WORK/MinimizedBoard/Attiny48/i2ctest/CC1101/CC1101/cc1101q1.c ****     wait_Miso();                          // Wait until MISO goes low
 123:/Users/davide/Documents/NQM_WORK/MinimizedBoard/Attiny48/i2ctest/CC1101/CC1101/cc1101q1.c ****     spisend(cmd);                        // Send strobe command
 124:/Users/davide/Documents/NQM_WORK/MinimizedBoard/Attiny48/i2ctest/CC1101/CC1101/cc1101q1.c ****     cc1101_Deselect();                    // Deselect CC1101
 125:/Users/davide/Documents/NQM_WORK/MinimizedBoard/Attiny48/i2ctest/CC1101/CC1101/cc1101q1.c **** }
 126:/Users/davide/Documents/NQM_WORK/MinimizedBoard/Attiny48/i2ctest/CC1101/CC1101/cc1101q1.c **** 
 127:/Users/davide/Documents/NQM_WORK/MinimizedBoard/Attiny48/i2ctest/CC1101/CC1101/cc1101q1.c **** /**
 128:/Users/davide/Documents/NQM_WORK/MinimizedBoard/Attiny48/i2ctest/CC1101/CC1101/cc1101q1.c ****  * readReg
 129:/Users/davide/Documents/NQM_WORK/MinimizedBoard/Attiny48/i2ctest/CC1101/CC1101/cc1101q1.c ****  *
 130:/Users/davide/Documents/NQM_WORK/MinimizedBoard/Attiny48/i2ctest/CC1101/CC1101/cc1101q1.c ****  * Read CC1101 register via SPI
 131:/Users/davide/Documents/NQM_WORK/MinimizedBoard/Attiny48/i2ctest/CC1101/CC1101/cc1101q1.c ****  *
 132:/Users/davide/Documents/NQM_WORK/MinimizedBoard/Attiny48/i2ctest/CC1101/CC1101/cc1101q1.c ****  * 'regAddr'	Register address
 133:/Users/davide/Documents/NQM_WORK/MinimizedBoard/Attiny48/i2ctest/CC1101/CC1101/cc1101q1.c ****  * 'regType'	Type of register: CC1101_CONFIG_REGISTER or CC1101_STATUS_REGISTER
 134:/Users/davide/Documents/NQM_WORK/MinimizedBoard/Attiny48/i2ctest/CC1101/CC1101/cc1101q1.c ****  *
 135:/Users/davide/Documents/NQM_WORK/MinimizedBoard/Attiny48/i2ctest/CC1101/CC1101/cc1101q1.c ****  * Return:
 136:/Users/davide/Documents/NQM_WORK/MinimizedBoard/Attiny48/i2ctest/CC1101/CC1101/cc1101q1.c ****  * 	Data byte returned by the CC1101 IC
 137:/Users/davide/Documents/NQM_WORK/MinimizedBoard/Attiny48/i2ctest/CC1101/CC1101/cc1101q1.c ****  */
 138:/Users/davide/Documents/NQM_WORK/MinimizedBoard/Attiny48/i2ctest/CC1101/CC1101/cc1101q1.c **** byte readReg(byte regAddr, byte regType)
 139:/Users/davide/Documents/NQM_WORK/MinimizedBoard/Attiny48/i2ctest/CC1101/CC1101/cc1101q1.c **** {
 140:/Users/davide/Documents/NQM_WORK/MinimizedBoard/Attiny48/i2ctest/CC1101/CC1101/cc1101q1.c ****     byte addr, val;
 141:/Users/davide/Documents/NQM_WORK/MinimizedBoard/Attiny48/i2ctest/CC1101/CC1101/cc1101q1.c ****     
 142:/Users/davide/Documents/NQM_WORK/MinimizedBoard/Attiny48/i2ctest/CC1101/CC1101/cc1101q1.c ****     addr = regAddr | regType;
 143:/Users/davide/Documents/NQM_WORK/MinimizedBoard/Attiny48/i2ctest/CC1101/CC1101/cc1101q1.c ****     cc1101_Select();                      // Select CC1101
 144:/Users/davide/Documents/NQM_WORK/MinimizedBoard/Attiny48/i2ctest/CC1101/CC1101/cc1101q1.c ****     wait_Miso();                          // Wait until MISO goes low
 145:/Users/davide/Documents/NQM_WORK/MinimizedBoard/Attiny48/i2ctest/CC1101/CC1101/cc1101q1.c ****     spisend(addr);                       // Send register address
 146:/Users/davide/Documents/NQM_WORK/MinimizedBoard/Attiny48/i2ctest/CC1101/CC1101/cc1101q1.c ****     val = spisend(0x00);                 // Read result
 147:/Users/davide/Documents/NQM_WORK/MinimizedBoard/Attiny48/i2ctest/CC1101/CC1101/cc1101q1.c ****     cc1101_Deselect();                    // Deselect CC1101
 148:/Users/davide/Documents/NQM_WORK/MinimizedBoard/Attiny48/i2ctest/CC1101/CC1101/cc1101q1.c ****     
 149:/Users/davide/Documents/NQM_WORK/MinimizedBoard/Attiny48/i2ctest/CC1101/CC1101/cc1101q1.c ****     return val;
 150:/Users/davide/Documents/NQM_WORK/MinimizedBoard/Attiny48/i2ctest/CC1101/CC1101/cc1101q1.c **** }
 151:/Users/davide/Documents/NQM_WORK/MinimizedBoard/Attiny48/i2ctest/CC1101/CC1101/cc1101q1.c **** 
 152:/Users/davide/Documents/NQM_WORK/MinimizedBoard/Attiny48/i2ctest/CC1101/CC1101/cc1101q1.c **** /**
 153:/Users/davide/Documents/NQM_WORK/MinimizedBoard/Attiny48/i2ctest/CC1101/CC1101/cc1101q1.c ****  * readBurstReg
 154:/Users/davide/Documents/NQM_WORK/MinimizedBoard/Attiny48/i2ctest/CC1101/CC1101/cc1101q1.c ****  *
 155:/Users/davide/Documents/NQM_WORK/MinimizedBoard/Attiny48/i2ctest/CC1101/CC1101/cc1101q1.c ****  * Read burst data from CC1101 via SPI
 156:/Users/davide/Documents/NQM_WORK/MinimizedBoard/Attiny48/i2ctest/CC1101/CC1101/cc1101q1.c ****  *
 157:/Users/davide/Documents/NQM_WORK/MinimizedBoard/Attiny48/i2ctest/CC1101/CC1101/cc1101q1.c ****  * 'buffer'	Buffer where to copy the result to
 158:/Users/davide/Documents/NQM_WORK/MinimizedBoard/Attiny48/i2ctest/CC1101/CC1101/cc1101q1.c ****  * 'regAddr'	Register address
 159:/Users/davide/Documents/NQM_WORK/MinimizedBoard/Attiny48/i2ctest/CC1101/CC1101/cc1101q1.c ****  * 'len'	Data length
 160:/Users/davide/Documents/NQM_WORK/MinimizedBoard/Attiny48/i2ctest/CC1101/CC1101/cc1101q1.c ****  */
 161:/Users/davide/Documents/NQM_WORK/MinimizedBoard/Attiny48/i2ctest/CC1101/CC1101/cc1101q1.c **** void readBurstReg(byte * buffer, byte regAddr, byte len)
 162:/Users/davide/Documents/NQM_WORK/MinimizedBoard/Attiny48/i2ctest/CC1101/CC1101/cc1101q1.c **** {
 163:/Users/davide/Documents/NQM_WORK/MinimizedBoard/Attiny48/i2ctest/CC1101/CC1101/cc1101q1.c ****     byte addr, i;
 164:/Users/davide/Documents/NQM_WORK/MinimizedBoard/Attiny48/i2ctest/CC1101/CC1101/cc1101q1.c ****     
 165:/Users/davide/Documents/NQM_WORK/MinimizedBoard/Attiny48/i2ctest/CC1101/CC1101/cc1101q1.c ****     addr = regAddr | READ_BURST;
 166:/Users/davide/Documents/NQM_WORK/MinimizedBoard/Attiny48/i2ctest/CC1101/CC1101/cc1101q1.c ****     cc1101_Select();                      // Select CC1101
 167:/Users/davide/Documents/NQM_WORK/MinimizedBoard/Attiny48/i2ctest/CC1101/CC1101/cc1101q1.c ****     wait_Miso();                          // Wait until MISO goes low
 168:/Users/davide/Documents/NQM_WORK/MinimizedBoard/Attiny48/i2ctest/CC1101/CC1101/cc1101q1.c ****     spisend(addr);                       // Send register address
 169:/Users/davide/Documents/NQM_WORK/MinimizedBoard/Attiny48/i2ctest/CC1101/CC1101/cc1101q1.c ****     for(i=0 ; i<len ; i++)
 170:/Users/davide/Documents/NQM_WORK/MinimizedBoard/Attiny48/i2ctest/CC1101/CC1101/cc1101q1.c ****         buffer[i] = spisend(0x00);         // Read result byte by byte
 171:/Users/davide/Documents/NQM_WORK/MinimizedBoard/Attiny48/i2ctest/CC1101/CC1101/cc1101q1.c ****     cc1101_Deselect();                    // Deselect CC1101
 172:/Users/davide/Documents/NQM_WORK/MinimizedBoard/Attiny48/i2ctest/CC1101/CC1101/cc1101q1.c **** }
 173:/Users/davide/Documents/NQM_WORK/MinimizedBoard/Attiny48/i2ctest/CC1101/CC1101/cc1101q1.c **** 
 174:/Users/davide/Documents/NQM_WORK/MinimizedBoard/Attiny48/i2ctest/CC1101/CC1101/cc1101q1.c **** /**
 175:/Users/davide/Documents/NQM_WORK/MinimizedBoard/Attiny48/i2ctest/CC1101/CC1101/cc1101q1.c ****  * reset
 176:/Users/davide/Documents/NQM_WORK/MinimizedBoard/Attiny48/i2ctest/CC1101/CC1101/cc1101q1.c ****  *
 177:/Users/davide/Documents/NQM_WORK/MinimizedBoard/Attiny48/i2ctest/CC1101/CC1101/cc1101q1.c ****  * Reset CC1101
 178:/Users/davide/Documents/NQM_WORK/MinimizedBoard/Attiny48/i2ctest/CC1101/CC1101/cc1101q1.c ****  */
 179:/Users/davide/Documents/NQM_WORK/MinimizedBoard/Attiny48/i2ctest/CC1101/CC1101/cc1101q1.c **** void reset(void)
 180:/Users/davide/Documents/NQM_WORK/MinimizedBoard/Attiny48/i2ctest/CC1101/CC1101/cc1101q1.c **** {
 181:/Users/davide/Documents/NQM_WORK/MinimizedBoard/Attiny48/i2ctest/CC1101/CC1101/cc1101q1.c ****     cc1101_Deselect();                    // Deselect CC1101
 182:/Users/davide/Documents/NQM_WORK/MinimizedBoard/Attiny48/i2ctest/CC1101/CC1101/cc1101q1.c ****     _delay_ms(5);
 183:/Users/davide/Documents/NQM_WORK/MinimizedBoard/Attiny48/i2ctest/CC1101/CC1101/cc1101q1.c ****     cc1101_Select();                      // Select CC1101
 184:/Users/davide/Documents/NQM_WORK/MinimizedBoard/Attiny48/i2ctest/CC1101/CC1101/cc1101q1.c ****     _delay_ms(10);
 185:/Users/davide/Documents/NQM_WORK/MinimizedBoard/Attiny48/i2ctest/CC1101/CC1101/cc1101q1.c ****     cc1101_Deselect();                    // Deselect CC1101
 186:/Users/davide/Documents/NQM_WORK/MinimizedBoard/Attiny48/i2ctest/CC1101/CC1101/cc1101q1.c ****     _delay_ms(41);
 187:/Users/davide/Documents/NQM_WORK/MinimizedBoard/Attiny48/i2ctest/CC1101/CC1101/cc1101q1.c ****     cc1101_Select();                      // Select CC1101
 188:/Users/davide/Documents/NQM_WORK/MinimizedBoard/Attiny48/i2ctest/CC1101/CC1101/cc1101q1.c ****     
 189:/Users/davide/Documents/NQM_WORK/MinimizedBoard/Attiny48/i2ctest/CC1101/CC1101/cc1101q1.c ****     wait_Miso();                          // Wait until MISO goes low
 190:/Users/davide/Documents/NQM_WORK/MinimizedBoard/Attiny48/i2ctest/CC1101/CC1101/cc1101q1.c ****     spisend(CC1101_SRES);                // Send reset command strobe
 191:/Users/davide/Documents/NQM_WORK/MinimizedBoard/Attiny48/i2ctest/CC1101/CC1101/cc1101q1.c ****     wait_Miso();                          // Wait until MISO goes low
 192:/Users/davide/Documents/NQM_WORK/MinimizedBoard/Attiny48/i2ctest/CC1101/CC1101/cc1101q1.c ****     
 193:/Users/davide/Documents/NQM_WORK/MinimizedBoard/Attiny48/i2ctest/CC1101/CC1101/cc1101q1.c ****     cc1101_Deselect();                    // Deselect CC1101
 194:/Users/davide/Documents/NQM_WORK/MinimizedBoard/Attiny48/i2ctest/CC1101/CC1101/cc1101q1.c ****     
 195:/Users/davide/Documents/NQM_WORK/MinimizedBoard/Attiny48/i2ctest/CC1101/CC1101/cc1101q1.c ****     setDefaultRegs();                     // Reconfigure CC1101
 196:/Users/davide/Documents/NQM_WORK/MinimizedBoard/Attiny48/i2ctest/CC1101/CC1101/cc1101q1.c ****     setRegsFromEeprom();                  // Take user settings from EEPROM
 197:/Users/davide/Documents/NQM_WORK/MinimizedBoard/Attiny48/i2ctest/CC1101/CC1101/cc1101q1.c **** }
 198:/Users/davide/Documents/NQM_WORK/MinimizedBoard/Attiny48/i2ctest/CC1101/CC1101/cc1101q1.c **** 
 199:/Users/davide/Documents/NQM_WORK/MinimizedBoard/Attiny48/i2ctest/CC1101/CC1101/cc1101q1.c **** /**
 200:/Users/davide/Documents/NQM_WORK/MinimizedBoard/Attiny48/i2ctest/CC1101/CC1101/cc1101q1.c ****  * setDefaultRegs
 201:/Users/davide/Documents/NQM_WORK/MinimizedBoard/Attiny48/i2ctest/CC1101/CC1101/cc1101q1.c ****  *
 202:/Users/davide/Documents/NQM_WORK/MinimizedBoard/Attiny48/i2ctest/CC1101/CC1101/cc1101q1.c ****  * Configure CC1101 registers
 203:/Users/davide/Documents/NQM_WORK/MinimizedBoard/Attiny48/i2ctest/CC1101/CC1101/cc1101q1.c ****  */
 204:/Users/davide/Documents/NQM_WORK/MinimizedBoard/Attiny48/i2ctest/CC1101/CC1101/cc1101q1.c **** void setDefaultRegs(void)
 205:/Users/davide/Documents/NQM_WORK/MinimizedBoard/Attiny48/i2ctest/CC1101/CC1101/cc1101q1.c **** {
 206:/Users/davide/Documents/NQM_WORK/MinimizedBoard/Attiny48/i2ctest/CC1101/CC1101/cc1101q1.c ****     writeReg(CC1101_IOCFG2,  CC1101_DEFVAL_IOCFG2);
 207:/Users/davide/Documents/NQM_WORK/MinimizedBoard/Attiny48/i2ctest/CC1101/CC1101/cc1101q1.c ****     writeReg(CC1101_IOCFG1,  CC1101_DEFVAL_IOCFG1);
 208:/Users/davide/Documents/NQM_WORK/MinimizedBoard/Attiny48/i2ctest/CC1101/CC1101/cc1101q1.c ****     writeReg(CC1101_IOCFG0,  CC1101_DEFVAL_IOCFG0);
 209:/Users/davide/Documents/NQM_WORK/MinimizedBoard/Attiny48/i2ctest/CC1101/CC1101/cc1101q1.c ****     writeReg(CC1101_FIFOTHR,  CC1101_DEFVAL_FIFOTHR);
 210:/Users/davide/Documents/NQM_WORK/MinimizedBoard/Attiny48/i2ctest/CC1101/CC1101/cc1101q1.c ****     writeReg(CC1101_PKTLEN,  CC1101_DEFVAL_PKTLEN);
 211:/Users/davide/Documents/NQM_WORK/MinimizedBoard/Attiny48/i2ctest/CC1101/CC1101/cc1101q1.c ****     writeReg(CC1101_PKTCTRL1,  CC1101_DEFVAL_PKTCTRL1);
 212:/Users/davide/Documents/NQM_WORK/MinimizedBoard/Attiny48/i2ctest/CC1101/CC1101/cc1101q1.c ****     writeReg(CC1101_PKTCTRL0,  CC1101_DEFVAL_PKTCTRL0);
 213:/Users/davide/Documents/NQM_WORK/MinimizedBoard/Attiny48/i2ctest/CC1101/CC1101/cc1101q1.c ****     
 214:/Users/davide/Documents/NQM_WORK/MinimizedBoard/Attiny48/i2ctest/CC1101/CC1101/cc1101q1.c ****     // Set default synchronization word
 215:/Users/davide/Documents/NQM_WORK/MinimizedBoard/Attiny48/i2ctest/CC1101/CC1101/cc1101q1.c ****      setSyncWord(CC1101_DEFVAL_SYNC1, CC1101_DEFVAL_SYNC0, false);
 216:/Users/davide/Documents/NQM_WORK/MinimizedBoard/Attiny48/i2ctest/CC1101/CC1101/cc1101q1.c ****     
 217:/Users/davide/Documents/NQM_WORK/MinimizedBoard/Attiny48/i2ctest/CC1101/CC1101/cc1101q1.c ****     // // Set default device address
 218:/Users/davide/Documents/NQM_WORK/MinimizedBoard/Attiny48/i2ctest/CC1101/CC1101/cc1101q1.c ****      setDevAddress(CC1101_DEFVAL_ADDR, false);
 219:/Users/davide/Documents/NQM_WORK/MinimizedBoard/Attiny48/i2ctest/CC1101/CC1101/cc1101q1.c ****     // // Set default frequency channel
 220:/Users/davide/Documents/NQM_WORK/MinimizedBoard/Attiny48/i2ctest/CC1101/CC1101/cc1101q1.c ****      setChannel(CC1101_DEFVAL_CHANNR, false);
 221:/Users/davide/Documents/NQM_WORK/MinimizedBoard/Attiny48/i2ctest/CC1101/CC1101/cc1101q1.c ****     
 222:/Users/davide/Documents/NQM_WORK/MinimizedBoard/Attiny48/i2ctest/CC1101/CC1101/cc1101q1.c ****     writeReg(CC1101_FSCTRL1,  CC1101_DEFVAL_FSCTRL1);
 223:/Users/davide/Documents/NQM_WORK/MinimizedBoard/Attiny48/i2ctest/CC1101/CC1101/cc1101q1.c ****     writeReg(CC1101_FSCTRL0,  CC1101_DEFVAL_FSCTRL0);
 224:/Users/davide/Documents/NQM_WORK/MinimizedBoard/Attiny48/i2ctest/CC1101/CC1101/cc1101q1.c ****     
 225:/Users/davide/Documents/NQM_WORK/MinimizedBoard/Attiny48/i2ctest/CC1101/CC1101/cc1101q1.c ****     // Set default carrier frequency = 868 MHz
 226:/Users/davide/Documents/NQM_WORK/MinimizedBoard/Attiny48/i2ctest/CC1101/CC1101/cc1101q1.c ****     setCarrierFreq(CFREQ_868);
 227:/Users/davide/Documents/NQM_WORK/MinimizedBoard/Attiny48/i2ctest/CC1101/CC1101/cc1101q1.c ****     
 228:/Users/davide/Documents/NQM_WORK/MinimizedBoard/Attiny48/i2ctest/CC1101/CC1101/cc1101q1.c ****     writeReg(CC1101_MDMCFG4,  CC1101_DEFVAL_MDMCFG4);
 229:/Users/davide/Documents/NQM_WORK/MinimizedBoard/Attiny48/i2ctest/CC1101/CC1101/cc1101q1.c ****     writeReg(CC1101_MDMCFG3,  CC1101_DEFVAL_MDMCFG3);
 230:/Users/davide/Documents/NQM_WORK/MinimizedBoard/Attiny48/i2ctest/CC1101/CC1101/cc1101q1.c ****     writeReg(CC1101_MDMCFG2,  CC1101_DEFVAL_MDMCFG2);
 231:/Users/davide/Documents/NQM_WORK/MinimizedBoard/Attiny48/i2ctest/CC1101/CC1101/cc1101q1.c ****     writeReg(CC1101_MDMCFG1,  CC1101_DEFVAL_MDMCFG1);
 232:/Users/davide/Documents/NQM_WORK/MinimizedBoard/Attiny48/i2ctest/CC1101/CC1101/cc1101q1.c ****     writeReg(CC1101_MDMCFG0,  CC1101_DEFVAL_MDMCFG0);
 233:/Users/davide/Documents/NQM_WORK/MinimizedBoard/Attiny48/i2ctest/CC1101/CC1101/cc1101q1.c ****     writeReg(CC1101_DEVIATN,  CC1101_DEFVAL_DEVIATN);
 234:/Users/davide/Documents/NQM_WORK/MinimizedBoard/Attiny48/i2ctest/CC1101/CC1101/cc1101q1.c ****     writeReg(CC1101_MCSM2,  CC1101_DEFVAL_MCSM2);
 235:/Users/davide/Documents/NQM_WORK/MinimizedBoard/Attiny48/i2ctest/CC1101/CC1101/cc1101q1.c ****     writeReg(CC1101_MCSM1,  CC1101_DEFVAL_MCSM1);
 236:/Users/davide/Documents/NQM_WORK/MinimizedBoard/Attiny48/i2ctest/CC1101/CC1101/cc1101q1.c ****     writeReg(CC1101_MCSM0,  CC1101_DEFVAL_MCSM0);
 237:/Users/davide/Documents/NQM_WORK/MinimizedBoard/Attiny48/i2ctest/CC1101/CC1101/cc1101q1.c ****     writeReg(CC1101_FOCCFG,  CC1101_DEFVAL_FOCCFG);
 238:/Users/davide/Documents/NQM_WORK/MinimizedBoard/Attiny48/i2ctest/CC1101/CC1101/cc1101q1.c ****     writeReg(CC1101_BSCFG,  CC1101_DEFVAL_BSCFG);
 239:/Users/davide/Documents/NQM_WORK/MinimizedBoard/Attiny48/i2ctest/CC1101/CC1101/cc1101q1.c ****     writeReg(CC1101_AGCCTRL2,  CC1101_DEFVAL_AGCCTRL2);
 240:/Users/davide/Documents/NQM_WORK/MinimizedBoard/Attiny48/i2ctest/CC1101/CC1101/cc1101q1.c ****     writeReg(CC1101_AGCCTRL1,  CC1101_DEFVAL_AGCCTRL1);
 241:/Users/davide/Documents/NQM_WORK/MinimizedBoard/Attiny48/i2ctest/CC1101/CC1101/cc1101q1.c ****     writeReg(CC1101_AGCCTRL0,  CC1101_DEFVAL_AGCCTRL0);
 242:/Users/davide/Documents/NQM_WORK/MinimizedBoard/Attiny48/i2ctest/CC1101/CC1101/cc1101q1.c ****     writeReg(CC1101_WOREVT1,  CC1101_DEFVAL_WOREVT1);
 243:/Users/davide/Documents/NQM_WORK/MinimizedBoard/Attiny48/i2ctest/CC1101/CC1101/cc1101q1.c ****     writeReg(CC1101_WOREVT0,  CC1101_DEFVAL_WOREVT0);
 244:/Users/davide/Documents/NQM_WORK/MinimizedBoard/Attiny48/i2ctest/CC1101/CC1101/cc1101q1.c ****     writeReg(CC1101_WORCTRL,  CC1101_DEFVAL_WORCTRL);
 245:/Users/davide/Documents/NQM_WORK/MinimizedBoard/Attiny48/i2ctest/CC1101/CC1101/cc1101q1.c ****     writeReg(CC1101_FREND1,  CC1101_DEFVAL_FREND1);
 246:/Users/davide/Documents/NQM_WORK/MinimizedBoard/Attiny48/i2ctest/CC1101/CC1101/cc1101q1.c ****     writeReg(CC1101_FREND0,  CC1101_DEFVAL_FREND0);
 247:/Users/davide/Documents/NQM_WORK/MinimizedBoard/Attiny48/i2ctest/CC1101/CC1101/cc1101q1.c ****     writeReg(CC1101_FSCAL3,  CC1101_DEFVAL_FSCAL3);
 248:/Users/davide/Documents/NQM_WORK/MinimizedBoard/Attiny48/i2ctest/CC1101/CC1101/cc1101q1.c ****     writeReg(CC1101_FSCAL2,  CC1101_DEFVAL_FSCAL2);
 249:/Users/davide/Documents/NQM_WORK/MinimizedBoard/Attiny48/i2ctest/CC1101/CC1101/cc1101q1.c ****     writeReg(CC1101_FSCAL1,  CC1101_DEFVAL_FSCAL1);
 250:/Users/davide/Documents/NQM_WORK/MinimizedBoard/Attiny48/i2ctest/CC1101/CC1101/cc1101q1.c ****     writeReg(CC1101_FSCAL0,  CC1101_DEFVAL_FSCAL0);
 251:/Users/davide/Documents/NQM_WORK/MinimizedBoard/Attiny48/i2ctest/CC1101/CC1101/cc1101q1.c ****     writeReg(CC1101_RCCTRL1,  CC1101_DEFVAL_RCCTRL1);
 252:/Users/davide/Documents/NQM_WORK/MinimizedBoard/Attiny48/i2ctest/CC1101/CC1101/cc1101q1.c ****     writeReg(CC1101_RCCTRL0,  CC1101_DEFVAL_RCCTRL0);
 253:/Users/davide/Documents/NQM_WORK/MinimizedBoard/Attiny48/i2ctest/CC1101/CC1101/cc1101q1.c ****     writeReg(CC1101_FSTEST,  CC1101_DEFVAL_FSTEST);
 254:/Users/davide/Documents/NQM_WORK/MinimizedBoard/Attiny48/i2ctest/CC1101/CC1101/cc1101q1.c ****     writeReg(CC1101_PTEST,  CC1101_DEFVAL_PTEST);
 255:/Users/davide/Documents/NQM_WORK/MinimizedBoard/Attiny48/i2ctest/CC1101/CC1101/cc1101q1.c ****     writeReg(CC1101_AGCTEST,  CC1101_DEFVAL_AGCTEST);
 256:/Users/davide/Documents/NQM_WORK/MinimizedBoard/Attiny48/i2ctest/CC1101/CC1101/cc1101q1.c ****     writeReg(CC1101_TEST2,  CC1101_DEFVAL_TEST2);
 257:/Users/davide/Documents/NQM_WORK/MinimizedBoard/Attiny48/i2ctest/CC1101/CC1101/cc1101q1.c ****     writeReg(CC1101_TEST1,  CC1101_DEFVAL_TEST1);
 258:/Users/davide/Documents/NQM_WORK/MinimizedBoard/Attiny48/i2ctest/CC1101/CC1101/cc1101q1.c ****     writeReg(CC1101_TEST0,  CC1101_DEFVAL_TEST0);
 259:/Users/davide/Documents/NQM_WORK/MinimizedBoard/Attiny48/i2ctest/CC1101/CC1101/cc1101q1.c **** }
 260:/Users/davide/Documents/NQM_WORK/MinimizedBoard/Attiny48/i2ctest/CC1101/CC1101/cc1101q1.c **** 
 261:/Users/davide/Documents/NQM_WORK/MinimizedBoard/Attiny48/i2ctest/CC1101/CC1101/cc1101q1.c **** /**
 262:/Users/davide/Documents/NQM_WORK/MinimizedBoard/Attiny48/i2ctest/CC1101/CC1101/cc1101q1.c ****  * init
 263:/Users/davide/Documents/NQM_WORK/MinimizedBoard/Attiny48/i2ctest/CC1101/CC1101/cc1101q1.c ****  *
 264:/Users/davide/Documents/NQM_WORK/MinimizedBoard/Attiny48/i2ctest/CC1101/CC1101/cc1101q1.c ****  * Initialize CC1101
 265:/Users/davide/Documents/NQM_WORK/MinimizedBoard/Attiny48/i2ctest/CC1101/CC1101/cc1101q1.c ****  */
 266:/Users/davide/Documents/NQM_WORK/MinimizedBoard/Attiny48/i2ctest/CC1101/CC1101/cc1101q1.c **** void init(void)
 267:/Users/davide/Documents/NQM_WORK/MinimizedBoard/Attiny48/i2ctest/CC1101/CC1101/cc1101q1.c **** {
 268:/Users/davide/Documents/NQM_WORK/MinimizedBoard/Attiny48/i2ctest/CC1101/CC1101/cc1101q1.c ****     spiinit();                           // Initialize SPI interface
 269:/Users/davide/Documents/NQM_WORK/MinimizedBoard/Attiny48/i2ctest/CC1101/CC1101/cc1101q1.c ****     //spi.setClockDivider(SPI_CLOCK_DIV16);
 270:/Users/davide/Documents/NQM_WORK/MinimizedBoard/Attiny48/i2ctest/CC1101/CC1101/cc1101q1.c ****     //spi.setBitOrder(MSBFIRST);
 271:/Users/davide/Documents/NQM_WORK/MinimizedBoard/Attiny48/i2ctest/CC1101/CC1101/cc1101q1.c ****     
 272:/Users/davide/Documents/NQM_WORK/MinimizedBoard/Attiny48/i2ctest/CC1101/CC1101/cc1101q1.c ****     DDRD=(0<<5);//pinMode(GDO0, INPUT);                 // Config GDO0 as input
 273:/Users/davide/Documents/NQM_WORK/MinimizedBoard/Attiny48/i2ctest/CC1101/CC1101/cc1101q1.c ****     
 274:/Users/davide/Documents/NQM_WORK/MinimizedBoard/Attiny48/i2ctest/CC1101/CC1101/cc1101q1.c ****     reset();                              // Reset CC1101
 275:/Users/davide/Documents/NQM_WORK/MinimizedBoard/Attiny48/i2ctest/CC1101/CC1101/cc1101q1.c ****     
 276:/Users/davide/Documents/NQM_WORK/MinimizedBoard/Attiny48/i2ctest/CC1101/CC1101/cc1101q1.c ****     // Configure PATABLE
 277:/Users/davide/Documents/NQM_WORK/MinimizedBoard/Attiny48/i2ctest/CC1101/CC1101/cc1101q1.c ****     //writeBurstReg(CC1101_PATABLE, (byte*)paTable, 8);
 278:/Users/davide/Documents/NQM_WORK/MinimizedBoard/Attiny48/i2ctest/CC1101/CC1101/cc1101q1.c ****     writeReg(CC1101_PATABLE, paTableByte);
 279:/Users/davide/Documents/NQM_WORK/MinimizedBoard/Attiny48/i2ctest/CC1101/CC1101/cc1101q1.c **** }
 280:/Users/davide/Documents/NQM_WORK/MinimizedBoard/Attiny48/i2ctest/CC1101/CC1101/cc1101q1.c **** 
 281:/Users/davide/Documents/NQM_WORK/MinimizedBoard/Attiny48/i2ctest/CC1101/CC1101/cc1101q1.c **** /**
 282:/Users/davide/Documents/NQM_WORK/MinimizedBoard/Attiny48/i2ctest/CC1101/CC1101/cc1101q1.c ****  * setSyncWord
 283:/Users/davide/Documents/NQM_WORK/MinimizedBoard/Attiny48/i2ctest/CC1101/CC1101/cc1101q1.c ****  *
 284:/Users/davide/Documents/NQM_WORK/MinimizedBoard/Attiny48/i2ctest/CC1101/CC1101/cc1101q1.c ****  * Set synchronization word
 285:/Users/davide/Documents/NQM_WORK/MinimizedBoard/Attiny48/i2ctest/CC1101/CC1101/cc1101q1.c ****  *
 286:/Users/davide/Documents/NQM_WORK/MinimizedBoard/Attiny48/i2ctest/CC1101/CC1101/cc1101q1.c ****  * 'syncH'	Synchronization word - High byte
 287:/Users/davide/Documents/NQM_WORK/MinimizedBoard/Attiny48/i2ctest/CC1101/CC1101/cc1101q1.c ****  * 'syncL'	Synchronization word - Low byte
 288:/Users/davide/Documents/NQM_WORK/MinimizedBoard/Attiny48/i2ctest/CC1101/CC1101/cc1101q1.c ****  * 'save' If TRUE, save parameter in EEPROM
 289:/Users/davide/Documents/NQM_WORK/MinimizedBoard/Attiny48/i2ctest/CC1101/CC1101/cc1101q1.c ****  */
 290:/Users/davide/Documents/NQM_WORK/MinimizedBoard/Attiny48/i2ctest/CC1101/CC1101/cc1101q1.c **** void setSyncWord(uint8_t syncH, uint8_t syncL, bool save)
 291:/Users/davide/Documents/NQM_WORK/MinimizedBoard/Attiny48/i2ctest/CC1101/CC1101/cc1101q1.c **** {
 292:/Users/davide/Documents/NQM_WORK/MinimizedBoard/Attiny48/i2ctest/CC1101/CC1101/cc1101q1.c ****     if ((syncWord[0] != syncH) || (syncWord[1] != syncL))
 293:/Users/davide/Documents/NQM_WORK/MinimizedBoard/Attiny48/i2ctest/CC1101/CC1101/cc1101q1.c ****     {
 294:/Users/davide/Documents/NQM_WORK/MinimizedBoard/Attiny48/i2ctest/CC1101/CC1101/cc1101q1.c ****         writeReg(CC1101_SYNC1, syncH);
 295:/Users/davide/Documents/NQM_WORK/MinimizedBoard/Attiny48/i2ctest/CC1101/CC1101/cc1101q1.c ****         writeReg(CC1101_SYNC0, syncL);
 296:/Users/davide/Documents/NQM_WORK/MinimizedBoard/Attiny48/i2ctest/CC1101/CC1101/cc1101q1.c ****         syncWord[0] = syncH;
 297:/Users/davide/Documents/NQM_WORK/MinimizedBoard/Attiny48/i2ctest/CC1101/CC1101/cc1101q1.c ****         syncWord[1] = syncL;
 298:/Users/davide/Documents/NQM_WORK/MinimizedBoard/Attiny48/i2ctest/CC1101/CC1101/cc1101q1.c ****         // Save in EEPROM
 299:/Users/davide/Documents/NQM_WORK/MinimizedBoard/Attiny48/i2ctest/CC1101/CC1101/cc1101q1.c ****         if (save)
 300:/Users/davide/Documents/NQM_WORK/MinimizedBoard/Attiny48/i2ctest/CC1101/CC1101/cc1101q1.c ****         {
 301:/Users/davide/Documents/NQM_WORK/MinimizedBoard/Attiny48/i2ctest/CC1101/CC1101/cc1101q1.c ****             eeprom_write_byte(EEPROM_SYNC_WORD, syncH);
 302:/Users/davide/Documents/NQM_WORK/MinimizedBoard/Attiny48/i2ctest/CC1101/CC1101/cc1101q1.c ****             eeprom_write_byte(EEPROM_SYNC_WORD + 1, syncL);
 303:/Users/davide/Documents/NQM_WORK/MinimizedBoard/Attiny48/i2ctest/CC1101/CC1101/cc1101q1.c ****         }
 304:/Users/davide/Documents/NQM_WORK/MinimizedBoard/Attiny48/i2ctest/CC1101/CC1101/cc1101q1.c ****     }
 305:/Users/davide/Documents/NQM_WORK/MinimizedBoard/Attiny48/i2ctest/CC1101/CC1101/cc1101q1.c **** }
 306:/Users/davide/Documents/NQM_WORK/MinimizedBoard/Attiny48/i2ctest/CC1101/CC1101/cc1101q1.c **** 
 307:/Users/davide/Documents/NQM_WORK/MinimizedBoard/Attiny48/i2ctest/CC1101/CC1101/cc1101q1.c **** /**
 308:/Users/davide/Documents/NQM_WORK/MinimizedBoard/Attiny48/i2ctest/CC1101/CC1101/cc1101q1.c ****  * setSyncWord (overriding method)
 309:/Users/davide/Documents/NQM_WORK/MinimizedBoard/Attiny48/i2ctest/CC1101/CC1101/cc1101q1.c ****  *
 310:/Users/davide/Documents/NQM_WORK/MinimizedBoard/Attiny48/i2ctest/CC1101/CC1101/cc1101q1.c ****  * Set synchronization word
 311:/Users/davide/Documents/NQM_WORK/MinimizedBoard/Attiny48/i2ctest/CC1101/CC1101/cc1101q1.c ****  *
 312:/Users/davide/Documents/NQM_WORK/MinimizedBoard/Attiny48/i2ctest/CC1101/CC1101/cc1101q1.c ****  * 'syncH'	Synchronization word - pointer to 2-byte array
 313:/Users/davide/Documents/NQM_WORK/MinimizedBoard/Attiny48/i2ctest/CC1101/CC1101/cc1101q1.c ****  * 'save' If TRUE, save parameter in EEPROM
 314:/Users/davide/Documents/NQM_WORK/MinimizedBoard/Attiny48/i2ctest/CC1101/CC1101/cc1101q1.c ****  */
 315:/Users/davide/Documents/NQM_WORK/MinimizedBoard/Attiny48/i2ctest/CC1101/CC1101/cc1101q1.c **** void setSyncWordbytes(byte *sync, bool save)
 316:/Users/davide/Documents/NQM_WORK/MinimizedBoard/Attiny48/i2ctest/CC1101/CC1101/cc1101q1.c **** {
 317:/Users/davide/Documents/NQM_WORK/MinimizedBoard/Attiny48/i2ctest/CC1101/CC1101/cc1101q1.c ****     setSyncWord(sync[0], sync[1], save);
 318:/Users/davide/Documents/NQM_WORK/MinimizedBoard/Attiny48/i2ctest/CC1101/CC1101/cc1101q1.c **** }
 319:/Users/davide/Documents/NQM_WORK/MinimizedBoard/Attiny48/i2ctest/CC1101/CC1101/cc1101q1.c **** 
 320:/Users/davide/Documents/NQM_WORK/MinimizedBoard/Attiny48/i2ctest/CC1101/CC1101/cc1101q1.c **** /**
 321:/Users/davide/Documents/NQM_WORK/MinimizedBoard/Attiny48/i2ctest/CC1101/CC1101/cc1101q1.c ****  * setDevAddress
 322:/Users/davide/Documents/NQM_WORK/MinimizedBoard/Attiny48/i2ctest/CC1101/CC1101/cc1101q1.c ****  *
 323:/Users/davide/Documents/NQM_WORK/MinimizedBoard/Attiny48/i2ctest/CC1101/CC1101/cc1101q1.c ****  * Set device address
 324:/Users/davide/Documents/NQM_WORK/MinimizedBoard/Attiny48/i2ctest/CC1101/CC1101/cc1101q1.c ****  *
 325:/Users/davide/Documents/NQM_WORK/MinimizedBoard/Attiny48/i2ctest/CC1101/CC1101/cc1101q1.c ****  * 'addr'	Device address
 326:/Users/davide/Documents/NQM_WORK/MinimizedBoard/Attiny48/i2ctest/CC1101/CC1101/cc1101q1.c ****  * 'save' If TRUE, save parameter in EEPROM
 327:/Users/davide/Documents/NQM_WORK/MinimizedBoard/Attiny48/i2ctest/CC1101/CC1101/cc1101q1.c ****  */
 328:/Users/davide/Documents/NQM_WORK/MinimizedBoard/Attiny48/i2ctest/CC1101/CC1101/cc1101q1.c **** void setDevAddress(byte addr, bool save)
 329:/Users/davide/Documents/NQM_WORK/MinimizedBoard/Attiny48/i2ctest/CC1101/CC1101/cc1101q1.c **** {
 330:/Users/davide/Documents/NQM_WORK/MinimizedBoard/Attiny48/i2ctest/CC1101/CC1101/cc1101q1.c ****     if (devAddress != addr)
 331:/Users/davide/Documents/NQM_WORK/MinimizedBoard/Attiny48/i2ctest/CC1101/CC1101/cc1101q1.c ****     {
 332:/Users/davide/Documents/NQM_WORK/MinimizedBoard/Attiny48/i2ctest/CC1101/CC1101/cc1101q1.c ****         writeReg(CC1101_ADDR, addr);
 333:/Users/davide/Documents/NQM_WORK/MinimizedBoard/Attiny48/i2ctest/CC1101/CC1101/cc1101q1.c ****         devAddress = addr;
 334:/Users/davide/Documents/NQM_WORK/MinimizedBoard/Attiny48/i2ctest/CC1101/CC1101/cc1101q1.c ****         // Save in EEPROM
 335:/Users/davide/Documents/NQM_WORK/MinimizedBoard/Attiny48/i2ctest/CC1101/CC1101/cc1101q1.c ****         if (save)
 336:/Users/davide/Documents/NQM_WORK/MinimizedBoard/Attiny48/i2ctest/CC1101/CC1101/cc1101q1.c ****             eeprom_write_byte(EEPROM_DEVICE_ADDR, addr);
 337:/Users/davide/Documents/NQM_WORK/MinimizedBoard/Attiny48/i2ctest/CC1101/CC1101/cc1101q1.c ****     }
 338:/Users/davide/Documents/NQM_WORK/MinimizedBoard/Attiny48/i2ctest/CC1101/CC1101/cc1101q1.c **** }
 339:/Users/davide/Documents/NQM_WORK/MinimizedBoard/Attiny48/i2ctest/CC1101/CC1101/cc1101q1.c **** 
 340:/Users/davide/Documents/NQM_WORK/MinimizedBoard/Attiny48/i2ctest/CC1101/CC1101/cc1101q1.c **** /**
 341:/Users/davide/Documents/NQM_WORK/MinimizedBoard/Attiny48/i2ctest/CC1101/CC1101/cc1101q1.c ****  * setChannel
 342:/Users/davide/Documents/NQM_WORK/MinimizedBoard/Attiny48/i2ctest/CC1101/CC1101/cc1101q1.c ****  *
 343:/Users/davide/Documents/NQM_WORK/MinimizedBoard/Attiny48/i2ctest/CC1101/CC1101/cc1101q1.c ****  * Set frequency channel
 344:/Users/davide/Documents/NQM_WORK/MinimizedBoard/Attiny48/i2ctest/CC1101/CC1101/cc1101q1.c ****  *
 345:/Users/davide/Documents/NQM_WORK/MinimizedBoard/Attiny48/i2ctest/CC1101/CC1101/cc1101q1.c ****  * 'chnl'	Frequency channel
 346:/Users/davide/Documents/NQM_WORK/MinimizedBoard/Attiny48/i2ctest/CC1101/CC1101/cc1101q1.c ****  * 'save' If TRUE, save parameter in EEPROM
 347:/Users/davide/Documents/NQM_WORK/MinimizedBoard/Attiny48/i2ctest/CC1101/CC1101/cc1101q1.c ****  */
 348:/Users/davide/Documents/NQM_WORK/MinimizedBoard/Attiny48/i2ctest/CC1101/CC1101/cc1101q1.c **** void setChannel(byte chnl, bool save)
 349:/Users/davide/Documents/NQM_WORK/MinimizedBoard/Attiny48/i2ctest/CC1101/CC1101/cc1101q1.c **** {
 350:/Users/davide/Documents/NQM_WORK/MinimizedBoard/Attiny48/i2ctest/CC1101/CC1101/cc1101q1.c ****     if (channel != chnl)
 351:/Users/davide/Documents/NQM_WORK/MinimizedBoard/Attiny48/i2ctest/CC1101/CC1101/cc1101q1.c ****     {
 352:/Users/davide/Documents/NQM_WORK/MinimizedBoard/Attiny48/i2ctest/CC1101/CC1101/cc1101q1.c ****         writeReg(CC1101_CHANNR,  chnl);
 353:/Users/davide/Documents/NQM_WORK/MinimizedBoard/Attiny48/i2ctest/CC1101/CC1101/cc1101q1.c ****         channel = chnl;
 354:/Users/davide/Documents/NQM_WORK/MinimizedBoard/Attiny48/i2ctest/CC1101/CC1101/cc1101q1.c ****         // Save in EEPROM
 355:/Users/davide/Documents/NQM_WORK/MinimizedBoard/Attiny48/i2ctest/CC1101/CC1101/cc1101q1.c ****         if (save)
 356:/Users/davide/Documents/NQM_WORK/MinimizedBoard/Attiny48/i2ctest/CC1101/CC1101/cc1101q1.c ****             eeprom_write_byte(EEPROM_FREQ_CHANNEL, chnl);
 357:/Users/davide/Documents/NQM_WORK/MinimizedBoard/Attiny48/i2ctest/CC1101/CC1101/cc1101q1.c ****     }
 358:/Users/davide/Documents/NQM_WORK/MinimizedBoard/Attiny48/i2ctest/CC1101/CC1101/cc1101q1.c **** }
 359:/Users/davide/Documents/NQM_WORK/MinimizedBoard/Attiny48/i2ctest/CC1101/CC1101/cc1101q1.c **** 
 360:/Users/davide/Documents/NQM_WORK/MinimizedBoard/Attiny48/i2ctest/CC1101/CC1101/cc1101q1.c **** /**
 361:/Users/davide/Documents/NQM_WORK/MinimizedBoard/Attiny48/i2ctest/CC1101/CC1101/cc1101q1.c ****  * setCarrierFreq
 362:/Users/davide/Documents/NQM_WORK/MinimizedBoard/Attiny48/i2ctest/CC1101/CC1101/cc1101q1.c ****  *
 363:/Users/davide/Documents/NQM_WORK/MinimizedBoard/Attiny48/i2ctest/CC1101/CC1101/cc1101q1.c ****  * Set carrier frequency
 364:/Users/davide/Documents/NQM_WORK/MinimizedBoard/Attiny48/i2ctest/CC1101/CC1101/cc1101q1.c ****  *
 365:/Users/davide/Documents/NQM_WORK/MinimizedBoard/Attiny48/i2ctest/CC1101/CC1101/cc1101q1.c ****  * 'freq'	New carrier frequency
 366:/Users/davide/Documents/NQM_WORK/MinimizedBoard/Attiny48/i2ctest/CC1101/CC1101/cc1101q1.c ****  */
 367:/Users/davide/Documents/NQM_WORK/MinimizedBoard/Attiny48/i2ctest/CC1101/CC1101/cc1101q1.c **** void setCarrierFreq(byte freq)
 368:/Users/davide/Documents/NQM_WORK/MinimizedBoard/Attiny48/i2ctest/CC1101/CC1101/cc1101q1.c **** {
 369:/Users/davide/Documents/NQM_WORK/MinimizedBoard/Attiny48/i2ctest/CC1101/CC1101/cc1101q1.c ****     switch(freq)
 370:/Users/davide/Documents/NQM_WORK/MinimizedBoard/Attiny48/i2ctest/CC1101/CC1101/cc1101q1.c ****     {
 371:/Users/davide/Documents/NQM_WORK/MinimizedBoard/Attiny48/i2ctest/CC1101/CC1101/cc1101q1.c ****         case CFREQ_915:
 372:/Users/davide/Documents/NQM_WORK/MinimizedBoard/Attiny48/i2ctest/CC1101/CC1101/cc1101q1.c ****             writeReg(CC1101_FREQ2,  CC1101_DEFVAL_FREQ2_915);
 373:/Users/davide/Documents/NQM_WORK/MinimizedBoard/Attiny48/i2ctest/CC1101/CC1101/cc1101q1.c ****             writeReg(CC1101_FREQ1,  CC1101_DEFVAL_FREQ1_915);
 374:/Users/davide/Documents/NQM_WORK/MinimizedBoard/Attiny48/i2ctest/CC1101/CC1101/cc1101q1.c ****             writeReg(CC1101_FREQ0,  CC1101_DEFVAL_FREQ0_915);
 375:/Users/davide/Documents/NQM_WORK/MinimizedBoard/Attiny48/i2ctest/CC1101/CC1101/cc1101q1.c ****             break;
 376:/Users/davide/Documents/NQM_WORK/MinimizedBoard/Attiny48/i2ctest/CC1101/CC1101/cc1101q1.c ****         case CFREQ_433:
 377:/Users/davide/Documents/NQM_WORK/MinimizedBoard/Attiny48/i2ctest/CC1101/CC1101/cc1101q1.c ****             writeReg(CC1101_FREQ2,  CC1101_DEFVAL_FREQ2_433);
 378:/Users/davide/Documents/NQM_WORK/MinimizedBoard/Attiny48/i2ctest/CC1101/CC1101/cc1101q1.c ****             writeReg(CC1101_FREQ1,  CC1101_DEFVAL_FREQ1_433);
 379:/Users/davide/Documents/NQM_WORK/MinimizedBoard/Attiny48/i2ctest/CC1101/CC1101/cc1101q1.c ****             writeReg(CC1101_FREQ0,  CC1101_DEFVAL_FREQ0_433);
 380:/Users/davide/Documents/NQM_WORK/MinimizedBoard/Attiny48/i2ctest/CC1101/CC1101/cc1101q1.c ****             break;
 381:/Users/davide/Documents/NQM_WORK/MinimizedBoard/Attiny48/i2ctest/CC1101/CC1101/cc1101q1.c ****         default:
 382:/Users/davide/Documents/NQM_WORK/MinimizedBoard/Attiny48/i2ctest/CC1101/CC1101/cc1101q1.c ****             writeReg(CC1101_FREQ2,  CC1101_DEFVAL_FREQ2_868);
 383:/Users/davide/Documents/NQM_WORK/MinimizedBoard/Attiny48/i2ctest/CC1101/CC1101/cc1101q1.c ****             writeReg(CC1101_FREQ1,  CC1101_DEFVAL_FREQ1_868);
 384:/Users/davide/Documents/NQM_WORK/MinimizedBoard/Attiny48/i2ctest/CC1101/CC1101/cc1101q1.c ****             writeReg(CC1101_FREQ0,  CC1101_DEFVAL_FREQ0_868);
 385:/Users/davide/Documents/NQM_WORK/MinimizedBoard/Attiny48/i2ctest/CC1101/CC1101/cc1101q1.c ****             break;
 386:/Users/davide/Documents/NQM_WORK/MinimizedBoard/Attiny48/i2ctest/CC1101/CC1101/cc1101q1.c ****     }
 387:/Users/davide/Documents/NQM_WORK/MinimizedBoard/Attiny48/i2ctest/CC1101/CC1101/cc1101q1.c ****     
 388:/Users/davide/Documents/NQM_WORK/MinimizedBoard/Attiny48/i2ctest/CC1101/CC1101/cc1101q1.c ****     carrierFreq = freq;
 389:/Users/davide/Documents/NQM_WORK/MinimizedBoard/Attiny48/i2ctest/CC1101/CC1101/cc1101q1.c **** }
 390:/Users/davide/Documents/NQM_WORK/MinimizedBoard/Attiny48/i2ctest/CC1101/CC1101/cc1101q1.c **** 
 391:/Users/davide/Documents/NQM_WORK/MinimizedBoard/Attiny48/i2ctest/CC1101/CC1101/cc1101q1.c **** /**
 392:/Users/davide/Documents/NQM_WORK/MinimizedBoard/Attiny48/i2ctest/CC1101/CC1101/cc1101q1.c ****  * setRegsFromEeprom
 393:/Users/davide/Documents/NQM_WORK/MinimizedBoard/Attiny48/i2ctest/CC1101/CC1101/cc1101q1.c ****  *
 394:/Users/davide/Documents/NQM_WORK/MinimizedBoard/Attiny48/i2ctest/CC1101/CC1101/cc1101q1.c ****  * Set registers from EEPROM
 395:/Users/davide/Documents/NQM_WORK/MinimizedBoard/Attiny48/i2ctest/CC1101/CC1101/cc1101q1.c ****  */
 396:/Users/davide/Documents/NQM_WORK/MinimizedBoard/Attiny48/i2ctest/CC1101/CC1101/cc1101q1.c **** void setRegsFromEeprom(void)
 397:/Users/davide/Documents/NQM_WORK/MinimizedBoard/Attiny48/i2ctest/CC1101/CC1101/cc1101q1.c **** {
 398:/Users/davide/Documents/NQM_WORK/MinimizedBoard/Attiny48/i2ctest/CC1101/CC1101/cc1101q1.c ****     byte bVal;
 399:/Users/davide/Documents/NQM_WORK/MinimizedBoard/Attiny48/i2ctest/CC1101/CC1101/cc1101q1.c ****     byte arrV[2];
 400:/Users/davide/Documents/NQM_WORK/MinimizedBoard/Attiny48/i2ctest/CC1101/CC1101/cc1101q1.c ****     
 401:/Users/davide/Documents/NQM_WORK/MinimizedBoard/Attiny48/i2ctest/CC1101/CC1101/cc1101q1.c ****     // Read RF channel from EEPROM
 402:/Users/davide/Documents/NQM_WORK/MinimizedBoard/Attiny48/i2ctest/CC1101/CC1101/cc1101q1.c ****     bVal = eeprom_read_byte(EEPROM_FREQ_CHANNEL);
 403:/Users/davide/Documents/NQM_WORK/MinimizedBoard/Attiny48/i2ctest/CC1101/CC1101/cc1101q1.c ****     // Set RF channel
 404:/Users/davide/Documents/NQM_WORK/MinimizedBoard/Attiny48/i2ctest/CC1101/CC1101/cc1101q1.c ****     if (bVal < NUMBER_OF_FCHANNELS )
 405:/Users/davide/Documents/NQM_WORK/MinimizedBoard/Attiny48/i2ctest/CC1101/CC1101/cc1101q1.c ****         setChannel(bVal, false);
 406:/Users/davide/Documents/NQM_WORK/MinimizedBoard/Attiny48/i2ctest/CC1101/CC1101/cc1101q1.c ****     // Read Sync word from EEPROM
 407:/Users/davide/Documents/NQM_WORK/MinimizedBoard/Attiny48/i2ctest/CC1101/CC1101/cc1101q1.c ****     arrV[0] = eeprom_read_byte(EEPROM_SYNC_WORD);
 408:/Users/davide/Documents/NQM_WORK/MinimizedBoard/Attiny48/i2ctest/CC1101/CC1101/cc1101q1.c ****     arrV[1] = eeprom_read_byte(EEPROM_SYNC_WORD + 1);
 409:/Users/davide/Documents/NQM_WORK/MinimizedBoard/Attiny48/i2ctest/CC1101/CC1101/cc1101q1.c ****     // Set Sync word. 0x00 and 0xFF values are not allowed
 410:/Users/davide/Documents/NQM_WORK/MinimizedBoard/Attiny48/i2ctest/CC1101/CC1101/cc1101q1.c ****     if (((arrV[0] != 0x00) && (arrV[0] != 0xFF)) || ((arrV[1] != 0x00) && (arrV[1] != 0xFF)))
 411:/Users/davide/Documents/NQM_WORK/MinimizedBoard/Attiny48/i2ctest/CC1101/CC1101/cc1101q1.c ****         setSyncWord(arrV[0], arrV[1], false);
 412:/Users/davide/Documents/NQM_WORK/MinimizedBoard/Attiny48/i2ctest/CC1101/CC1101/cc1101q1.c ****     // Read device address from EEPROM
 413:/Users/davide/Documents/NQM_WORK/MinimizedBoard/Attiny48/i2ctest/CC1101/CC1101/cc1101q1.c ****     bVal = eeprom_read_byte(EEPROM_DEVICE_ADDR);
 414:/Users/davide/Documents/NQM_WORK/MinimizedBoard/Attiny48/i2ctest/CC1101/CC1101/cc1101q1.c ****     // Set device address
 415:/Users/davide/Documents/NQM_WORK/MinimizedBoard/Attiny48/i2ctest/CC1101/CC1101/cc1101q1.c ****     if (bVal > 0)
 416:/Users/davide/Documents/NQM_WORK/MinimizedBoard/Attiny48/i2ctest/CC1101/CC1101/cc1101q1.c ****         setDevAddress(bVal, false);
 417:/Users/davide/Documents/NQM_WORK/MinimizedBoard/Attiny48/i2ctest/CC1101/CC1101/cc1101q1.c **** }
 418:/Users/davide/Documents/NQM_WORK/MinimizedBoard/Attiny48/i2ctest/CC1101/CC1101/cc1101q1.c **** 
 419:/Users/davide/Documents/NQM_WORK/MinimizedBoard/Attiny48/i2ctest/CC1101/CC1101/cc1101q1.c **** /**
 420:/Users/davide/Documents/NQM_WORK/MinimizedBoard/Attiny48/i2ctest/CC1101/CC1101/cc1101q1.c ****  * setPowerDownState
 421:/Users/davide/Documents/NQM_WORK/MinimizedBoard/Attiny48/i2ctest/CC1101/CC1101/cc1101q1.c ****  *
 422:/Users/davide/Documents/NQM_WORK/MinimizedBoard/Attiny48/i2ctest/CC1101/CC1101/cc1101q1.c ****  * Put CC1101 into power-down state
 423:/Users/davide/Documents/NQM_WORK/MinimizedBoard/Attiny48/i2ctest/CC1101/CC1101/cc1101q1.c ****  */
 424:/Users/davide/Documents/NQM_WORK/MinimizedBoard/Attiny48/i2ctest/CC1101/CC1101/cc1101q1.c **** void setPowerDownState(void)
 425:/Users/davide/Documents/NQM_WORK/MinimizedBoard/Attiny48/i2ctest/CC1101/CC1101/cc1101q1.c **** {
 426:/Users/davide/Documents/NQM_WORK/MinimizedBoard/Attiny48/i2ctest/CC1101/CC1101/cc1101q1.c ****     // Comming from RX state, we need to enter the IDLE state first
 427:/Users/davide/Documents/NQM_WORK/MinimizedBoard/Attiny48/i2ctest/CC1101/CC1101/cc1101q1.c ****     cmdStrobe(CC1101_SIDLE);
 428:/Users/davide/Documents/NQM_WORK/MinimizedBoard/Attiny48/i2ctest/CC1101/CC1101/cc1101q1.c ****     // Enter Power-down state
 429:/Users/davide/Documents/NQM_WORK/MinimizedBoard/Attiny48/i2ctest/CC1101/CC1101/cc1101q1.c ****     cmdStrobe(CC1101_SPWD);
 430:/Users/davide/Documents/NQM_WORK/MinimizedBoard/Attiny48/i2ctest/CC1101/CC1101/cc1101q1.c **** }
 431:/Users/davide/Documents/NQM_WORK/MinimizedBoard/Attiny48/i2ctest/CC1101/CC1101/cc1101q1.c **** 
 432:/Users/davide/Documents/NQM_WORK/MinimizedBoard/Attiny48/i2ctest/CC1101/CC1101/cc1101q1.c **** /**
 433:/Users/davide/Documents/NQM_WORK/MinimizedBoard/Attiny48/i2ctest/CC1101/CC1101/cc1101q1.c ****  * sendData
 434:/Users/davide/Documents/NQM_WORK/MinimizedBoard/Attiny48/i2ctest/CC1101/CC1101/cc1101q1.c ****  *
 435:/Users/davide/Documents/NQM_WORK/MinimizedBoard/Attiny48/i2ctest/CC1101/CC1101/cc1101q1.c ****  * Send data packet via RF
 436:/Users/davide/Documents/NQM_WORK/MinimizedBoard/Attiny48/i2ctest/CC1101/CC1101/cc1101q1.c ****  *
 437:/Users/davide/Documents/NQM_WORK/MinimizedBoard/Attiny48/i2ctest/CC1101/CC1101/cc1101q1.c ****  * 'packet'	Packet to be transmitted. First byte is the destination address
 438:/Users/davide/Documents/NQM_WORK/MinimizedBoard/Attiny48/i2ctest/CC1101/CC1101/cc1101q1.c ****  *
 439:/Users/davide/Documents/NQM_WORK/MinimizedBoard/Attiny48/i2ctest/CC1101/CC1101/cc1101q1.c ****  *  Return:
 440:/Users/davide/Documents/NQM_WORK/MinimizedBoard/Attiny48/i2ctest/CC1101/CC1101/cc1101q1.c ****  *    True if the transmission succeeds
 441:/Users/davide/Documents/NQM_WORK/MinimizedBoard/Attiny48/i2ctest/CC1101/CC1101/cc1101q1.c ****  *    False otherwise
 442:/Users/davide/Documents/NQM_WORK/MinimizedBoard/Attiny48/i2ctest/CC1101/CC1101/cc1101q1.c ****  */
 443:/Users/davide/Documents/NQM_WORK/MinimizedBoard/Attiny48/i2ctest/CC1101/CC1101/cc1101q1.c **** bool sendData(struct CCPACKET packet)
 444:/Users/davide/Documents/NQM_WORK/MinimizedBoard/Attiny48/i2ctest/CC1101/CC1101/cc1101q1.c **** {
 445:/Users/davide/Documents/NQM_WORK/MinimizedBoard/Attiny48/i2ctest/CC1101/CC1101/cc1101q1.c ****     byte marcState;
 446:/Users/davide/Documents/NQM_WORK/MinimizedBoard/Attiny48/i2ctest/CC1101/CC1101/cc1101q1.c ****     bool res = false;
 447:/Users/davide/Documents/NQM_WORK/MinimizedBoard/Attiny48/i2ctest/CC1101/CC1101/cc1101q1.c ****     
 448:/Users/davide/Documents/NQM_WORK/MinimizedBoard/Attiny48/i2ctest/CC1101/CC1101/cc1101q1.c ****     // Declare to be in Tx state. This will avoid receiving packets whilst
 449:/Users/davide/Documents/NQM_WORK/MinimizedBoard/Attiny48/i2ctest/CC1101/CC1101/cc1101q1.c ****     // transmitting
 450:/Users/davide/Documents/NQM_WORK/MinimizedBoard/Attiny48/i2ctest/CC1101/CC1101/cc1101q1.c ****     rfState = RFSTATE_TX;
 451:/Users/davide/Documents/NQM_WORK/MinimizedBoard/Attiny48/i2ctest/CC1101/CC1101/cc1101q1.c ****     
 452:/Users/davide/Documents/NQM_WORK/MinimizedBoard/Attiny48/i2ctest/CC1101/CC1101/cc1101q1.c ****     // Enter RX state
 453:/Users/davide/Documents/NQM_WORK/MinimizedBoard/Attiny48/i2ctest/CC1101/CC1101/cc1101q1.c ****     setRxState();
 454:/Users/davide/Documents/NQM_WORK/MinimizedBoard/Attiny48/i2ctest/CC1101/CC1101/cc1101q1.c ****     
 455:/Users/davide/Documents/NQM_WORK/MinimizedBoard/Attiny48/i2ctest/CC1101/CC1101/cc1101q1.c ****     // Check that the RX state has been entered
 456:/Users/davide/Documents/NQM_WORK/MinimizedBoard/Attiny48/i2ctest/CC1101/CC1101/cc1101q1.c ****     //check marcstate !=0x11
 457:/Users/davide/Documents/NQM_WORK/MinimizedBoard/Attiny48/i2ctest/CC1101/CC1101/cc1101q1.c ****     while (((marcState = readStatusReg(CC1101_MARCSTATE)) & 0x1F) != 0x0D)
 458:/Users/davide/Documents/NQM_WORK/MinimizedBoard/Attiny48/i2ctest/CC1101/CC1101/cc1101q1.c ****     {
 459:/Users/davide/Documents/NQM_WORK/MinimizedBoard/Attiny48/i2ctest/CC1101/CC1101/cc1101q1.c ****         if (marcState == 0x11)        // RX_OVERFLOW
 460:/Users/davide/Documents/NQM_WORK/MinimizedBoard/Attiny48/i2ctest/CC1101/CC1101/cc1101q1.c ****             flushRxFifo();              // flush receive queue
 461:/Users/davide/Documents/NQM_WORK/MinimizedBoard/Attiny48/i2ctest/CC1101/CC1101/cc1101q1.c ****     }
 462:/Users/davide/Documents/NQM_WORK/MinimizedBoard/Attiny48/i2ctest/CC1101/CC1101/cc1101q1.c ****     
 463:/Users/davide/Documents/NQM_WORK/MinimizedBoard/Attiny48/i2ctest/CC1101/CC1101/cc1101q1.c ****     _delay_ms(500);
 464:/Users/davide/Documents/NQM_WORK/MinimizedBoard/Attiny48/i2ctest/CC1101/CC1101/cc1101q1.c ****     
 465:/Users/davide/Documents/NQM_WORK/MinimizedBoard/Attiny48/i2ctest/CC1101/CC1101/cc1101q1.c ****     // Set data length at the first position of the TX FIFO
 466:/Users/davide/Documents/NQM_WORK/MinimizedBoard/Attiny48/i2ctest/CC1101/CC1101/cc1101q1.c ****     writeReg(CC1101_TXFIFO,  packet.length);
 467:/Users/davide/Documents/NQM_WORK/MinimizedBoard/Attiny48/i2ctest/CC1101/CC1101/cc1101q1.c ****     // Write data into the TX FIFO
 468:/Users/davide/Documents/NQM_WORK/MinimizedBoard/Attiny48/i2ctest/CC1101/CC1101/cc1101q1.c ****     writeBurstReg(CC1101_TXFIFO, packet.data, packet.length);
 469:/Users/davide/Documents/NQM_WORK/MinimizedBoard/Attiny48/i2ctest/CC1101/CC1101/cc1101q1.c ****     
 470:/Users/davide/Documents/NQM_WORK/MinimizedBoard/Attiny48/i2ctest/CC1101/CC1101/cc1101q1.c ****     // CCA enabled: will enter TX state only if the channel is clear
 471:/Users/davide/Documents/NQM_WORK/MinimizedBoard/Attiny48/i2ctest/CC1101/CC1101/cc1101q1.c ****     setTxState();
 472:/Users/davide/Documents/NQM_WORK/MinimizedBoard/Attiny48/i2ctest/CC1101/CC1101/cc1101q1.c ****     
 473:/Users/davide/Documents/NQM_WORK/MinimizedBoard/Attiny48/i2ctest/CC1101/CC1101/cc1101q1.c ****     // Check that TX state is being entered (state = RXTX_SETTLING)
 474:/Users/davide/Documents/NQM_WORK/MinimizedBoard/Attiny48/i2ctest/CC1101/CC1101/cc1101q1.c ****     marcState = readStatusReg(CC1101_MARCSTATE) & 0x1F;
 475:/Users/davide/Documents/NQM_WORK/MinimizedBoard/Attiny48/i2ctest/CC1101/CC1101/cc1101q1.c ****     if((marcState != 0x13) && (marcState != 0x14) && (marcState != 0x15))
 476:/Users/davide/Documents/NQM_WORK/MinimizedBoard/Attiny48/i2ctest/CC1101/CC1101/cc1101q1.c ****     {
 477:/Users/davide/Documents/NQM_WORK/MinimizedBoard/Attiny48/i2ctest/CC1101/CC1101/cc1101q1.c ****         setIdleState();       // Enter IDLE state
 478:/Users/davide/Documents/NQM_WORK/MinimizedBoard/Attiny48/i2ctest/CC1101/CC1101/cc1101q1.c ****         flushTxFifo();        // Flush Tx FIFO
 479:/Users/davide/Documents/NQM_WORK/MinimizedBoard/Attiny48/i2ctest/CC1101/CC1101/cc1101q1.c ****         setRxState();         // Back to RX state
 480:/Users/davide/Documents/NQM_WORK/MinimizedBoard/Attiny48/i2ctest/CC1101/CC1101/cc1101q1.c ****         
 481:/Users/davide/Documents/NQM_WORK/MinimizedBoard/Attiny48/i2ctest/CC1101/CC1101/cc1101q1.c ****         // Declare to be in Rx state
 482:/Users/davide/Documents/NQM_WORK/MinimizedBoard/Attiny48/i2ctest/CC1101/CC1101/cc1101q1.c ****         rfState = RFSTATE_RX;
 483:/Users/davide/Documents/NQM_WORK/MinimizedBoard/Attiny48/i2ctest/CC1101/CC1101/cc1101q1.c ****         return false;
 484:/Users/davide/Documents/NQM_WORK/MinimizedBoard/Attiny48/i2ctest/CC1101/CC1101/cc1101q1.c ****     }
 485:/Users/davide/Documents/NQM_WORK/MinimizedBoard/Attiny48/i2ctest/CC1101/CC1101/cc1101q1.c **** //
 486:/Users/davide/Documents/NQM_WORK/MinimizedBoard/Attiny48/i2ctest/CC1101/CC1101/cc1101q1.c ****     // Wait for the sync word to be transmitted
 487:/Users/davide/Documents/NQM_WORK/MinimizedBoard/Attiny48/i2ctest/CC1101/CC1101/cc1101q1.c ****     wait_GDO0_high();
 488:/Users/davide/Documents/NQM_WORK/MinimizedBoard/Attiny48/i2ctest/CC1101/CC1101/cc1101q1.c ****     
 489:/Users/davide/Documents/NQM_WORK/MinimizedBoard/Attiny48/i2ctest/CC1101/CC1101/cc1101q1.c ****     // Wait until the end of the packet transmission
 490:/Users/davide/Documents/NQM_WORK/MinimizedBoard/Attiny48/i2ctest/CC1101/CC1101/cc1101q1.c ****     wait_GDO0_low();
 491:/Users/davide/Documents/NQM_WORK/MinimizedBoard/Attiny48/i2ctest/CC1101/CC1101/cc1101q1.c **** //
 492:/Users/davide/Documents/NQM_WORK/MinimizedBoard/Attiny48/i2ctest/CC1101/CC1101/cc1101q1.c **** //    // Check that the TX FIFO is empty
 493:/Users/davide/Documents/NQM_WORK/MinimizedBoard/Attiny48/i2ctest/CC1101/CC1101/cc1101q1.c ****     if((readStatusReg(CC1101_TXBYTES) & 0x7F) == 0)
 494:/Users/davide/Documents/NQM_WORK/MinimizedBoard/Attiny48/i2ctest/CC1101/CC1101/cc1101q1.c ****         res = true;
 495:/Users/davide/Documents/NQM_WORK/MinimizedBoard/Attiny48/i2ctest/CC1101/CC1101/cc1101q1.c ****     
 496:/Users/davide/Documents/NQM_WORK/MinimizedBoard/Attiny48/i2ctest/CC1101/CC1101/cc1101q1.c ****     setIdleState();       // Enter IDLE state
 497:/Users/davide/Documents/NQM_WORK/MinimizedBoard/Attiny48/i2ctest/CC1101/CC1101/cc1101q1.c ****     _delay_ms(2000);
 498:/Users/davide/Documents/NQM_WORK/MinimizedBoard/Attiny48/i2ctest/CC1101/CC1101/cc1101q1.c ****     flushTxFifo();        // Flush Tx FIFO
 499:/Users/davide/Documents/NQM_WORK/MinimizedBoard/Attiny48/i2ctest/CC1101/CC1101/cc1101q1.c ****     
 500:/Users/davide/Documents/NQM_WORK/MinimizedBoard/Attiny48/i2ctest/CC1101/CC1101/cc1101q1.c ****     // Enter back into RX state
 501:/Users/davide/Documents/NQM_WORK/MinimizedBoard/Attiny48/i2ctest/CC1101/CC1101/cc1101q1.c ****     setRxState();
 502:/Users/davide/Documents/NQM_WORK/MinimizedBoard/Attiny48/i2ctest/CC1101/CC1101/cc1101q1.c ****     
 503:/Users/davide/Documents/NQM_WORK/MinimizedBoard/Attiny48/i2ctest/CC1101/CC1101/cc1101q1.c ****     // Declare to be in Rx state
 504:/Users/davide/Documents/NQM_WORK/MinimizedBoard/Attiny48/i2ctest/CC1101/CC1101/cc1101q1.c ****     rfState = RFSTATE_RX;
 505:/Users/davide/Documents/NQM_WORK/MinimizedBoard/Attiny48/i2ctest/CC1101/CC1101/cc1101q1.c **** //
 506:/Users/davide/Documents/NQM_WORK/MinimizedBoard/Attiny48/i2ctest/CC1101/CC1101/cc1101q1.c ****     return res;
 507:/Users/davide/Documents/NQM_WORK/MinimizedBoard/Attiny48/i2ctest/CC1101/CC1101/cc1101q1.c **** }
 508:/Users/davide/Documents/NQM_WORK/MinimizedBoard/Attiny48/i2ctest/CC1101/CC1101/cc1101q1.c **** 
 509:/Users/davide/Documents/NQM_WORK/MinimizedBoard/Attiny48/i2ctest/CC1101/CC1101/cc1101q1.c **** /**
 510:/Users/davide/Documents/NQM_WORK/MinimizedBoard/Attiny48/i2ctest/CC1101/CC1101/cc1101q1.c ****  * receiveData
 511:/Users/davide/Documents/NQM_WORK/MinimizedBoard/Attiny48/i2ctest/CC1101/CC1101/cc1101q1.c ****  *
 512:/Users/davide/Documents/NQM_WORK/MinimizedBoard/Attiny48/i2ctest/CC1101/CC1101/cc1101q1.c ****  * Read data packet from RX FIFO
 513:/Users/davide/Documents/NQM_WORK/MinimizedBoard/Attiny48/i2ctest/CC1101/CC1101/cc1101q1.c ****  *
 514:/Users/davide/Documents/NQM_WORK/MinimizedBoard/Attiny48/i2ctest/CC1101/CC1101/cc1101q1.c ****  * 'packet'	Container for the packet received
 515:/Users/davide/Documents/NQM_WORK/MinimizedBoard/Attiny48/i2ctest/CC1101/CC1101/cc1101q1.c ****  *
 516:/Users/davide/Documents/NQM_WORK/MinimizedBoard/Attiny48/i2ctest/CC1101/CC1101/cc1101q1.c ****  * Return:
 517:/Users/davide/Documents/NQM_WORK/MinimizedBoard/Attiny48/i2ctest/CC1101/CC1101/cc1101q1.c ****  * 	Amount of bytes received
 518:/Users/davide/Documents/NQM_WORK/MinimizedBoard/Attiny48/i2ctest/CC1101/CC1101/cc1101q1.c ****  */
 519:/Users/davide/Documents/NQM_WORK/MinimizedBoard/Attiny48/i2ctest/CC1101/CC1101/cc1101q1.c **** byte receiveData(struct CCPACKET * packet)
 520:/Users/davide/Documents/NQM_WORK/MinimizedBoard/Attiny48/i2ctest/CC1101/CC1101/cc1101q1.c **** {
 521:/Users/davide/Documents/NQM_WORK/MinimizedBoard/Attiny48/i2ctest/CC1101/CC1101/cc1101q1.c ****     byte val;
 522:/Users/davide/Documents/NQM_WORK/MinimizedBoard/Attiny48/i2ctest/CC1101/CC1101/cc1101q1.c ****     byte rxBytes = readStatusReg(CC1101_RXBYTES);
 523:/Users/davide/Documents/NQM_WORK/MinimizedBoard/Attiny48/i2ctest/CC1101/CC1101/cc1101q1.c ****     
 524:/Users/davide/Documents/NQM_WORK/MinimizedBoard/Attiny48/i2ctest/CC1101/CC1101/cc1101q1.c ****     // Rx FIFO overflow?
 525:/Users/davide/Documents/NQM_WORK/MinimizedBoard/Attiny48/i2ctest/CC1101/CC1101/cc1101q1.c ****     if ((readStatusReg(CC1101_MARCSTATE) & 0x1F) == 0x11)
 526:/Users/davide/Documents/NQM_WORK/MinimizedBoard/Attiny48/i2ctest/CC1101/CC1101/cc1101q1.c ****     {
 527:/Users/davide/Documents/NQM_WORK/MinimizedBoard/Attiny48/i2ctest/CC1101/CC1101/cc1101q1.c ****         // Flush Rx FIFO
 528:/Users/davide/Documents/NQM_WORK/MinimizedBoard/Attiny48/i2ctest/CC1101/CC1101/cc1101q1.c ****         cmdStrobe(CC1101_SFRX);
 529:/Users/davide/Documents/NQM_WORK/MinimizedBoard/Attiny48/i2ctest/CC1101/CC1101/cc1101q1.c ****         packet->length = 0;
 530:/Users/davide/Documents/NQM_WORK/MinimizedBoard/Attiny48/i2ctest/CC1101/CC1101/cc1101q1.c ****     }
 531:/Users/davide/Documents/NQM_WORK/MinimizedBoard/Attiny48/i2ctest/CC1101/CC1101/cc1101q1.c ****     // Any byte waiting to be read?
 532:/Users/davide/Documents/NQM_WORK/MinimizedBoard/Attiny48/i2ctest/CC1101/CC1101/cc1101q1.c ****     else if (readStatusReg(CC1101_RXBYTES) & 0x7F)
 533:/Users/davide/Documents/NQM_WORK/MinimizedBoard/Attiny48/i2ctest/CC1101/CC1101/cc1101q1.c ****     {
 534:/Users/davide/Documents/NQM_WORK/MinimizedBoard/Attiny48/i2ctest/CC1101/CC1101/cc1101q1.c ****         // Read data length
 535:/Users/davide/Documents/NQM_WORK/MinimizedBoard/Attiny48/i2ctest/CC1101/CC1101/cc1101q1.c ****         packet->length = readConfigReg(CC1101_RXFIFO);
 536:/Users/davide/Documents/NQM_WORK/MinimizedBoard/Attiny48/i2ctest/CC1101/CC1101/cc1101q1.c ****         // If packet is too long
 537:/Users/davide/Documents/NQM_WORK/MinimizedBoard/Attiny48/i2ctest/CC1101/CC1101/cc1101q1.c ****         if (packet->length > CC1101_DATA_LEN)
 538:/Users/davide/Documents/NQM_WORK/MinimizedBoard/Attiny48/i2ctest/CC1101/CC1101/cc1101q1.c ****             packet->length = 0;   // Discard packet
 539:/Users/davide/Documents/NQM_WORK/MinimizedBoard/Attiny48/i2ctest/CC1101/CC1101/cc1101q1.c ****         else
 540:/Users/davide/Documents/NQM_WORK/MinimizedBoard/Attiny48/i2ctest/CC1101/CC1101/cc1101q1.c ****         {
 541:/Users/davide/Documents/NQM_WORK/MinimizedBoard/Attiny48/i2ctest/CC1101/CC1101/cc1101q1.c ****             // Read data packet
 542:/Users/davide/Documents/NQM_WORK/MinimizedBoard/Attiny48/i2ctest/CC1101/CC1101/cc1101q1.c ****             readBurstReg(packet->data, CC1101_RXFIFO, packet->length);
 543:/Users/davide/Documents/NQM_WORK/MinimizedBoard/Attiny48/i2ctest/CC1101/CC1101/cc1101q1.c ****             // Read RSSI
 544:/Users/davide/Documents/NQM_WORK/MinimizedBoard/Attiny48/i2ctest/CC1101/CC1101/cc1101q1.c ****             packet->rssi = readConfigReg(CC1101_RXFIFO);
 545:/Users/davide/Documents/NQM_WORK/MinimizedBoard/Attiny48/i2ctest/CC1101/CC1101/cc1101q1.c ****             // Read LQI and CRC_OK
 546:/Users/davide/Documents/NQM_WORK/MinimizedBoard/Attiny48/i2ctest/CC1101/CC1101/cc1101q1.c ****             val = readConfigReg(CC1101_RXFIFO);
 547:/Users/davide/Documents/NQM_WORK/MinimizedBoard/Attiny48/i2ctest/CC1101/CC1101/cc1101q1.c ****             packet->lqi = val & 0x7F;
 548:/Users/davide/Documents/NQM_WORK/MinimizedBoard/Attiny48/i2ctest/CC1101/CC1101/cc1101q1.c ****             packet->crc_ok = bitRead(val, 7);
 549:/Users/davide/Documents/NQM_WORK/MinimizedBoard/Attiny48/i2ctest/CC1101/CC1101/cc1101q1.c ****         }
 550:/Users/davide/Documents/NQM_WORK/MinimizedBoard/Attiny48/i2ctest/CC1101/CC1101/cc1101q1.c ****     }
 551:/Users/davide/Documents/NQM_WORK/MinimizedBoard/Attiny48/i2ctest/CC1101/CC1101/cc1101q1.c ****     else
 552:/Users/davide/Documents/NQM_WORK/MinimizedBoard/Attiny48/i2ctest/CC1101/CC1101/cc1101q1.c ****         packet->length = 0;
 553:/Users/davide/Documents/NQM_WORK/MinimizedBoard/Attiny48/i2ctest/CC1101/CC1101/cc1101q1.c ****     
 554:/Users/davide/Documents/NQM_WORK/MinimizedBoard/Attiny48/i2ctest/CC1101/CC1101/cc1101q1.c ****     // Flush RX FIFO. Don't uncomment
 555:/Users/davide/Documents/NQM_WORK/MinimizedBoard/Attiny48/i2ctest/CC1101/CC1101/cc1101q1.c ****     //cmdStrobe(CC1101_SFRX);
 556:/Users/davide/Documents/NQM_WORK/MinimizedBoard/Attiny48/i2ctest/CC1101/CC1101/cc1101q1.c ****     
 557:/Users/davide/Documents/NQM_WORK/MinimizedBoard/Attiny48/i2ctest/CC1101/CC1101/cc1101q1.c ****     // Enter back into RX state
 558:/Users/davide/Documents/NQM_WORK/MinimizedBoard/Attiny48/i2ctest/CC1101/CC1101/cc1101q1.c ****     setRxState();
 559:/Users/davide/Documents/NQM_WORK/MinimizedBoard/Attiny48/i2ctest/CC1101/CC1101/cc1101q1.c ****     
 560:/Users/davide/Documents/NQM_WORK/MinimizedBoard/Attiny48/i2ctest/CC1101/CC1101/cc1101q1.c ****     return packet->length;
 561:/Users/davide/Documents/NQM_WORK/MinimizedBoard/Attiny48/i2ctest/CC1101/CC1101/cc1101q1.c ****     
 562:/Users/davide/Documents/NQM_WORK/MinimizedBoard/Attiny48/i2ctest/CC1101/CC1101/cc1101q1.c ****     setIdleState();       // Enter IDLE state
 563:/Users/davide/Documents/NQM_WORK/MinimizedBoard/Attiny48/i2ctest/CC1101/CC1101/cc1101q1.c ****     flushRxFifo();        // Flush Rx FIFO
 564:/Users/davide/Documents/NQM_WORK/MinimizedBoard/Attiny48/i2ctest/CC1101/CC1101/cc1101q1.c ****     //cmdStrobe(CC1101_SCAL);
 565:/Users/davide/Documents/NQM_WORK/MinimizedBoard/Attiny48/i2ctest/CC1101/CC1101/cc1101q1.c ****     
 566:/Users/davide/Documents/NQM_WORK/MinimizedBoard/Attiny48/i2ctest/CC1101/CC1101/cc1101q1.c ****     // Back to RX state
 567:/Users/davide/Documents/NQM_WORK/MinimizedBoard/Attiny48/i2ctest/CC1101/CC1101/cc1101q1.c ****     setRxState();
 568:/Users/davide/Documents/NQM_WORK/MinimizedBoard/Attiny48/i2ctest/CC1101/CC1101/cc1101q1.c ****     
 569:/Users/davide/Documents/NQM_WORK/MinimizedBoard/Attiny48/i2ctest/CC1101/CC1101/cc1101q1.c ****     return packet->length;
 570:/Users/davide/Documents/NQM_WORK/MinimizedBoard/Attiny48/i2ctest/CC1101/CC1101/cc1101q1.c **** }
 571:/Users/davide/Documents/NQM_WORK/MinimizedBoard/Attiny48/i2ctest/CC1101/CC1101/cc1101q1.c **** 
 572:/Users/davide/Documents/NQM_WORK/MinimizedBoard/Attiny48/i2ctest/CC1101/CC1101/cc1101q1.c **** void spiinit(void)
 573:/Users/davide/Documents/NQM_WORK/MinimizedBoard/Attiny48/i2ctest/CC1101/CC1101/cc1101q1.c **** {
 173               	.LM6:
 174               	.LFBB3:
 175 0012 CF93      		push r28
 176 0014 DF93      		push r29
 177 0016 1F92      		push __zero_reg__
 178 0018 CDB7      		in r28,__SP_L__
 179 001a DEB7      		in r29,__SP_H__
 180               	/* prologue: function */
 181               	/* frame size = 1 */
 182               	/* stack size = 3 */
 183               	.L__stack_usage = 3
 574:/Users/davide/Documents/NQM_WORK/MinimizedBoard/Attiny48/i2ctest/CC1101/CC1101/cc1101q1.c ****     volatile char IOReg;
 575:/Users/davide/Documents/NQM_WORK/MinimizedBoard/Attiny48/i2ctest/CC1101/CC1101/cc1101q1.c ****     DDRB = (1<<PB5)|(1<<PB3)|(1<<PB2);
 185               	.LM7:
 186 001c 8CE2      		ldi r24,lo8(44)
 187 001e 84B9      		out 0x4,r24
 576:/Users/davide/Documents/NQM_WORK/MinimizedBoard/Attiny48/i2ctest/CC1101/CC1101/cc1101q1.c ****     
 577:/Users/davide/Documents/NQM_WORK/MinimizedBoard/Attiny48/i2ctest/CC1101/CC1101/cc1101q1.c ****     //Enable SPI master mode
 578:/Users/davide/Documents/NQM_WORK/MinimizedBoard/Attiny48/i2ctest/CC1101/CC1101/cc1101q1.c ****     SPCR = (1<<SPE)|(1<<MSTR);
 189               	.LM8:
 190 0020 80E5      		ldi r24,lo8(80)
 191 0022 8CBD      		out 0x2c,r24
 579:/Users/davide/Documents/NQM_WORK/MinimizedBoard/Attiny48/i2ctest/CC1101/CC1101/cc1101q1.c ****     IOReg   = SPSR;                 	// clear SPIF bit in SPSR
 193               	.LM9:
 194 0024 8DB5      		in r24,0x2d
 195 0026 8983      		std Y+1,r24
 580:/Users/davide/Documents/NQM_WORK/MinimizedBoard/Attiny48/i2ctest/CC1101/CC1101/cc1101q1.c ****     IOReg   = SPDR;
 197               	.LM10:
 198 0028 8EB5      		in r24,0x2e
 199 002a 8983      		std Y+1,r24
 200               	/* epilogue start */
 581:/Users/davide/Documents/NQM_WORK/MinimizedBoard/Attiny48/i2ctest/CC1101/CC1101/cc1101q1.c ****     
 582:/Users/davide/Documents/NQM_WORK/MinimizedBoard/Attiny48/i2ctest/CC1101/CC1101/cc1101q1.c **** }
 202               	.LM11:
 203 002c 0F90      		pop __tmp_reg__
 204 002e DF91      		pop r29
 205 0030 CF91      		pop r28
 206 0032 0895      		ret
 211               	.Lscope3:
 214               	.global	spisend
 216               	spisend:
 583:/Users/davide/Documents/NQM_WORK/MinimizedBoard/Attiny48/i2ctest/CC1101/CC1101/cc1101q1.c **** 
 584:/Users/davide/Documents/NQM_WORK/MinimizedBoard/Attiny48/i2ctest/CC1101/CC1101/cc1101q1.c **** /**
 585:/Users/davide/Documents/NQM_WORK/MinimizedBoard/Attiny48/i2ctest/CC1101/CC1101/cc1101q1.c ****  * send
 586:/Users/davide/Documents/NQM_WORK/MinimizedBoard/Attiny48/i2ctest/CC1101/CC1101/cc1101q1.c ****  *
 587:/Users/davide/Documents/NQM_WORK/MinimizedBoard/Attiny48/i2ctest/CC1101/CC1101/cc1101q1.c ****  * Send byte via SPI
 588:/Users/davide/Documents/NQM_WORK/MinimizedBoard/Attiny48/i2ctest/CC1101/CC1101/cc1101q1.c ****  *
 589:/Users/davide/Documents/NQM_WORK/MinimizedBoard/Attiny48/i2ctest/CC1101/CC1101/cc1101q1.c ****  * 'value'	Value to be sent
 590:/Users/davide/Documents/NQM_WORK/MinimizedBoard/Attiny48/i2ctest/CC1101/CC1101/cc1101q1.c ****  *
 591:/Users/davide/Documents/NQM_WORK/MinimizedBoard/Attiny48/i2ctest/CC1101/CC1101/cc1101q1.c ****  * Return:
 592:/Users/davide/Documents/NQM_WORK/MinimizedBoard/Attiny48/i2ctest/CC1101/CC1101/cc1101q1.c ****  * 	Response received from SPI slave
 593:/Users/davide/Documents/NQM_WORK/MinimizedBoard/Attiny48/i2ctest/CC1101/CC1101/cc1101q1.c ****  */
 594:/Users/davide/Documents/NQM_WORK/MinimizedBoard/Attiny48/i2ctest/CC1101/CC1101/cc1101q1.c **** byte spisend(byte value)
 595:/Users/davide/Documents/NQM_WORK/MinimizedBoard/Attiny48/i2ctest/CC1101/CC1101/cc1101q1.c **** {
 218               	.LM12:
 219               	.LFBB4:
 220               	/* prologue: function */
 221               	/* frame size = 0 */
 222               	/* stack size = 0 */
 223               	.L__stack_usage = 0
 596:/Users/davide/Documents/NQM_WORK/MinimizedBoard/Attiny48/i2ctest/CC1101/CC1101/cc1101q1.c ****     SPDR = value;                          // Transfer byte via SPI
 225               	.LM13:
 226 0034 8EBD      		out 0x2e,r24
 227               	.L8:
 597:/Users/davide/Documents/NQM_WORK/MinimizedBoard/Attiny48/i2ctest/CC1101/CC1101/cc1101q1.c ****     wait_Spi();                            // Wait until SPI operation is terminated
 229               	.LM14:
 230 0036 0DB4      		in __tmp_reg__,0x2d
 231 0038 07FE      		sbrs __tmp_reg__,7
 232 003a 00C0      		rjmp .L8
 598:/Users/davide/Documents/NQM_WORK/MinimizedBoard/Attiny48/i2ctest/CC1101/CC1101/cc1101q1.c ****     return SPDR;
 234               	.LM15:
 235 003c 8EB5      		in r24,0x2e
 599:/Users/davide/Documents/NQM_WORK/MinimizedBoard/Attiny48/i2ctest/CC1101/CC1101/cc1101q1.c **** }
 237               	.LM16:
 238 003e 0895      		ret
 240               	.Lscope4:
 244               	.global	writeReg
 246               	writeReg:
  80:/Users/davide/Documents/NQM_WORK/MinimizedBoard/Attiny48/i2ctest/CC1101/CC1101/cc1101q1.c ****     cc1101_Select();                      // Select CC1101
 248               	.LM17:
 249               	.LFBB5:
 250 0040 CF93      		push r28
 251 0042 DF93      		push r29
 252 0044 1F92      		push __zero_reg__
 253 0046 CDB7      		in r28,__SP_L__
 254 0048 DEB7      		in r29,__SP_H__
 255               	/* prologue: function */
 256               	/* frame size = 1 */
 257               	/* stack size = 3 */
 258               	.L__stack_usage = 3
  81:/Users/davide/Documents/NQM_WORK/MinimizedBoard/Attiny48/i2ctest/CC1101/CC1101/cc1101q1.c ****     wait_Miso();                          // Wait until MISO goes low
 260               	.LM18:
 261 004a 2A98      		cbi 0x5,2
 262               	.L11:
  82:/Users/davide/Documents/NQM_WORK/MinimizedBoard/Attiny48/i2ctest/CC1101/CC1101/cc1101q1.c ****     spisend(regAddr);                    // Send register address
 264               	.LM19:
 265 004c 1C99      		sbic 0x3,4
 266 004e 00C0      		rjmp .L11
  83:/Users/davide/Documents/NQM_WORK/MinimizedBoard/Attiny48/i2ctest/CC1101/CC1101/cc1101q1.c ****     spisend(value);                      // Send value
 268               	.LM20:
 269 0050 6983      		std Y+1,r22
 270 0052 00D0      		rcall spisend
  84:/Users/davide/Documents/NQM_WORK/MinimizedBoard/Attiny48/i2ctest/CC1101/CC1101/cc1101q1.c ****     cc1101_Deselect();                    // Deselect CC1101
 272               	.LM21:
 273 0054 6981      		ldd r22,Y+1
 274 0056 862F      		mov r24,r22
 275 0058 00D0      		rcall spisend
  85:/Users/davide/Documents/NQM_WORK/MinimizedBoard/Attiny48/i2ctest/CC1101/CC1101/cc1101q1.c **** }
 277               	.LM22:
 278 005a 2A9A      		sbi 0x5,2
 279               	/* epilogue start */
  86:/Users/davide/Documents/NQM_WORK/MinimizedBoard/Attiny48/i2ctest/CC1101/CC1101/cc1101q1.c **** 
 281               	.LM23:
 282 005c 0F90      		pop __tmp_reg__
 283 005e DF91      		pop r29
 284 0060 CF91      		pop r28
 285 0062 0895      		ret
 287               	.Lscope5:
 292               	.global	setSyncWord
 294               	setSyncWord:
 291:/Users/davide/Documents/NQM_WORK/MinimizedBoard/Attiny48/i2ctest/CC1101/CC1101/cc1101q1.c ****     if ((syncWord[0] != syncH) || (syncWord[1] != syncL))
 296               	.LM24:
 297               	.LFBB6:
 298 0064 1F93      		push r17
 299 0066 CF93      		push r28
 300 0068 DF93      		push r29
 301               	/* prologue: function */
 302               	/* frame size = 0 */
 303               	/* stack size = 3 */
 304               	.L__stack_usage = 3
 292:/Users/davide/Documents/NQM_WORK/MinimizedBoard/Attiny48/i2ctest/CC1101/CC1101/cc1101q1.c ****     {
 306               	.LM25:
 307 006a 9091 0000 		lds r25,syncWord
 308 006e 9813      		cpse r25,r24
 309 0070 00C0      		rjmp .L14
 292:/Users/davide/Documents/NQM_WORK/MinimizedBoard/Attiny48/i2ctest/CC1101/CC1101/cc1101q1.c ****     {
 311               	.LM26:
 312 0072 9091 0000 		lds r25,syncWord+1
 313 0076 9617      		cp r25,r22
 314 0078 01F0      		breq .L13
 315               	.L14:
 316 007a 142F      		mov r17,r20
 317 007c C62F      		mov r28,r22
 318 007e D82F      		mov r29,r24
 294:/Users/davide/Documents/NQM_WORK/MinimizedBoard/Attiny48/i2ctest/CC1101/CC1101/cc1101q1.c ****         writeReg(CC1101_SYNC0, syncL);
 320               	.LM27:
 321 0080 682F      		mov r22,r24
 322 0082 84E0      		ldi r24,lo8(4)
 323 0084 00D0      		rcall writeReg
 295:/Users/davide/Documents/NQM_WORK/MinimizedBoard/Attiny48/i2ctest/CC1101/CC1101/cc1101q1.c ****         syncWord[0] = syncH;
 325               	.LM28:
 326 0086 6C2F      		mov r22,r28
 327 0088 85E0      		ldi r24,lo8(5)
 328 008a 00D0      		rcall writeReg
 296:/Users/davide/Documents/NQM_WORK/MinimizedBoard/Attiny48/i2ctest/CC1101/CC1101/cc1101q1.c ****         syncWord[1] = syncL;
 330               	.LM29:
 331 008c D093 0000 		sts syncWord,r29
 297:/Users/davide/Documents/NQM_WORK/MinimizedBoard/Attiny48/i2ctest/CC1101/CC1101/cc1101q1.c ****         // Save in EEPROM
 333               	.LM30:
 334 0090 C093 0000 		sts syncWord+1,r28
 299:/Users/davide/Documents/NQM_WORK/MinimizedBoard/Attiny48/i2ctest/CC1101/CC1101/cc1101q1.c ****         {
 336               	.LM31:
 337 0094 1123      		tst r17
 338 0096 01F0      		breq .L13
 339               	.LBB14:
 340               	.LBB15:
 301:/Users/davide/Documents/NQM_WORK/MinimizedBoard/Attiny48/i2ctest/CC1101/CC1101/cc1101q1.c ****             eeprom_write_byte(EEPROM_SYNC_WORD + 1, syncL);
 342               	.LM32:
 343 0098 6D2F      		mov r22,r29
 344 009a 82E0      		ldi r24,lo8(2)
 345 009c 90E0      		ldi r25,0
 346 009e 00D0      		rcall __eewr_byte_tn48
 302:/Users/davide/Documents/NQM_WORK/MinimizedBoard/Attiny48/i2ctest/CC1101/CC1101/cc1101q1.c ****         }
 348               	.LM33:
 349 00a0 6C2F      		mov r22,r28
 350 00a2 83E0      		ldi r24,lo8(3)
 351 00a4 90E0      		ldi r25,0
 352               	/* epilogue start */
 353               	.LBE15:
 354               	.LBE14:
 305:/Users/davide/Documents/NQM_WORK/MinimizedBoard/Attiny48/i2ctest/CC1101/CC1101/cc1101q1.c **** 
 356               	.LM34:
 357 00a6 DF91      		pop r29
 358 00a8 CF91      		pop r28
 359 00aa 1F91      		pop r17
 360               	.LBB17:
 361               	.LBB16:
 302:/Users/davide/Documents/NQM_WORK/MinimizedBoard/Attiny48/i2ctest/CC1101/CC1101/cc1101q1.c ****         }
 363               	.LM35:
 364 00ac 00C0      		rjmp __eewr_byte_tn48
 365               	.L13:
 366               	/* epilogue start */
 367               	.LBE16:
 368               	.LBE17:
 305:/Users/davide/Documents/NQM_WORK/MinimizedBoard/Attiny48/i2ctest/CC1101/CC1101/cc1101q1.c **** 
 370               	.LM36:
 371 00ae DF91      		pop r29
 372 00b0 CF91      		pop r28
 373 00b2 1F91      		pop r17
 374 00b4 0895      		ret
 376               	.Lscope6:
 380               	.global	setSyncWordbytes
 382               	setSyncWordbytes:
 316:/Users/davide/Documents/NQM_WORK/MinimizedBoard/Attiny48/i2ctest/CC1101/CC1101/cc1101q1.c ****     setSyncWord(sync[0], sync[1], save);
 384               	.LM37:
 385               	.LFBB7:
 386               	/* prologue: function */
 387               	/* frame size = 0 */
 388               	/* stack size = 0 */
 389               	.L__stack_usage = 0
 390 00b6 462F      		mov r20,r22
 317:/Users/davide/Documents/NQM_WORK/MinimizedBoard/Attiny48/i2ctest/CC1101/CC1101/cc1101q1.c **** }
 392               	.LM38:
 393 00b8 FC01      		movw r30,r24
 394 00ba 6181      		ldd r22,Z+1
 395 00bc 8081      		ld r24,Z
 396 00be 00C0      		rjmp setSyncWord
 398               	.Lscope7:
 402               	.global	setDevAddress
 404               	setDevAddress:
 329:/Users/davide/Documents/NQM_WORK/MinimizedBoard/Attiny48/i2ctest/CC1101/CC1101/cc1101q1.c ****     if (devAddress != addr)
 406               	.LM39:
 407               	.LFBB8:
 408 00c0 CF93      		push r28
 409 00c2 DF93      		push r29
 410               	/* prologue: function */
 411               	/* frame size = 0 */
 412               	/* stack size = 2 */
 413               	.L__stack_usage = 2
 330:/Users/davide/Documents/NQM_WORK/MinimizedBoard/Attiny48/i2ctest/CC1101/CC1101/cc1101q1.c ****     {
 415               	.LM40:
 416 00c4 9091 0000 		lds r25,devAddress
 417 00c8 9817      		cp r25,r24
 418 00ca 01F0      		breq .L21
 419 00cc D62F      		mov r29,r22
 420 00ce C82F      		mov r28,r24
 421               	.LBB20:
 422               	.LBB21:
 332:/Users/davide/Documents/NQM_WORK/MinimizedBoard/Attiny48/i2ctest/CC1101/CC1101/cc1101q1.c ****         devAddress = addr;
 424               	.LM41:
 425 00d0 682F      		mov r22,r24
 426 00d2 89E0      		ldi r24,lo8(9)
 427 00d4 00D0      		rcall writeReg
 333:/Users/davide/Documents/NQM_WORK/MinimizedBoard/Attiny48/i2ctest/CC1101/CC1101/cc1101q1.c ****         // Save in EEPROM
 429               	.LM42:
 430 00d6 C093 0000 		sts devAddress,r28
 335:/Users/davide/Documents/NQM_WORK/MinimizedBoard/Attiny48/i2ctest/CC1101/CC1101/cc1101q1.c ****             eeprom_write_byte(EEPROM_DEVICE_ADDR, addr);
 432               	.LM43:
 433 00da DD23      		tst r29
 434 00dc 01F0      		breq .L21
 336:/Users/davide/Documents/NQM_WORK/MinimizedBoard/Attiny48/i2ctest/CC1101/CC1101/cc1101q1.c ****     }
 436               	.LM44:
 437 00de 6C2F      		mov r22,r28
 438 00e0 84E0      		ldi r24,lo8(4)
 439 00e2 90E0      		ldi r25,0
 440               	/* epilogue start */
 441               	.LBE21:
 442               	.LBE20:
 338:/Users/davide/Documents/NQM_WORK/MinimizedBoard/Attiny48/i2ctest/CC1101/CC1101/cc1101q1.c **** 
 444               	.LM45:
 445 00e4 DF91      		pop r29
 446 00e6 CF91      		pop r28
 447               	.LBB23:
 448               	.LBB22:
 336:/Users/davide/Documents/NQM_WORK/MinimizedBoard/Attiny48/i2ctest/CC1101/CC1101/cc1101q1.c ****     }
 450               	.LM46:
 451 00e8 00C0      		rjmp __eewr_byte_tn48
 452               	.L21:
 453               	/* epilogue start */
 454               	.LBE22:
 455               	.LBE23:
 338:/Users/davide/Documents/NQM_WORK/MinimizedBoard/Attiny48/i2ctest/CC1101/CC1101/cc1101q1.c **** 
 457               	.LM47:
 458 00ea DF91      		pop r29
 459 00ec CF91      		pop r28
 460 00ee 0895      		ret
 462               	.Lscope8:
 466               	.global	setChannel
 468               	setChannel:
 349:/Users/davide/Documents/NQM_WORK/MinimizedBoard/Attiny48/i2ctest/CC1101/CC1101/cc1101q1.c ****     if (channel != chnl)
 470               	.LM48:
 471               	.LFBB9:
 472 00f0 CF93      		push r28
 473 00f2 DF93      		push r29
 474               	/* prologue: function */
 475               	/* frame size = 0 */
 476               	/* stack size = 2 */
 477               	.L__stack_usage = 2
 350:/Users/davide/Documents/NQM_WORK/MinimizedBoard/Attiny48/i2ctest/CC1101/CC1101/cc1101q1.c ****     {
 479               	.LM49:
 480 00f4 9091 0000 		lds r25,channel
 481 00f8 9817      		cp r25,r24
 482 00fa 01F0      		breq .L28
 483 00fc D62F      		mov r29,r22
 484 00fe C82F      		mov r28,r24
 485               	.LBB26:
 486               	.LBB27:
 352:/Users/davide/Documents/NQM_WORK/MinimizedBoard/Attiny48/i2ctest/CC1101/CC1101/cc1101q1.c ****         channel = chnl;
 488               	.LM50:
 489 0100 682F      		mov r22,r24
 490 0102 8AE0      		ldi r24,lo8(10)
 491 0104 00D0      		rcall writeReg
 353:/Users/davide/Documents/NQM_WORK/MinimizedBoard/Attiny48/i2ctest/CC1101/CC1101/cc1101q1.c ****         // Save in EEPROM
 493               	.LM51:
 494 0106 C093 0000 		sts channel,r28
 355:/Users/davide/Documents/NQM_WORK/MinimizedBoard/Attiny48/i2ctest/CC1101/CC1101/cc1101q1.c ****             eeprom_write_byte(EEPROM_FREQ_CHANNEL, chnl);
 496               	.LM52:
 497 010a DD23      		tst r29
 498 010c 01F0      		breq .L28
 356:/Users/davide/Documents/NQM_WORK/MinimizedBoard/Attiny48/i2ctest/CC1101/CC1101/cc1101q1.c ****     }
 500               	.LM53:
 501 010e 6C2F      		mov r22,r28
 502 0110 80E0      		ldi r24,0
 503 0112 90E0      		ldi r25,0
 504               	/* epilogue start */
 505               	.LBE27:
 506               	.LBE26:
 358:/Users/davide/Documents/NQM_WORK/MinimizedBoard/Attiny48/i2ctest/CC1101/CC1101/cc1101q1.c **** 
 508               	.LM54:
 509 0114 DF91      		pop r29
 510 0116 CF91      		pop r28
 511               	.LBB29:
 512               	.LBB28:
 356:/Users/davide/Documents/NQM_WORK/MinimizedBoard/Attiny48/i2ctest/CC1101/CC1101/cc1101q1.c ****     }
 514               	.LM55:
 515 0118 00C0      		rjmp __eewr_byte_tn48
 516               	.L28:
 517               	/* epilogue start */
 518               	.LBE28:
 519               	.LBE29:
 358:/Users/davide/Documents/NQM_WORK/MinimizedBoard/Attiny48/i2ctest/CC1101/CC1101/cc1101q1.c **** 
 521               	.LM56:
 522 011a DF91      		pop r29
 523 011c CF91      		pop r28
 524 011e 0895      		ret
 526               	.Lscope9:
 528               	.global	setRegsFromEeprom
 530               	setRegsFromEeprom:
 397:/Users/davide/Documents/NQM_WORK/MinimizedBoard/Attiny48/i2ctest/CC1101/CC1101/cc1101q1.c ****     byte bVal;
 532               	.LM57:
 533               	.LFBB10:
 534 0120 CF93      		push r28
 535               	/* prologue: function */
 536               	/* frame size = 0 */
 537               	/* stack size = 1 */
 538               	.L__stack_usage = 1
 402:/Users/davide/Documents/NQM_WORK/MinimizedBoard/Attiny48/i2ctest/CC1101/CC1101/cc1101q1.c ****     // Set RF channel
 540               	.LM58:
 541 0122 80E0      		ldi r24,0
 542 0124 90E0      		ldi r25,0
 543 0126 00D0      		rcall __eerd_byte_tn48
 404:/Users/davide/Documents/NQM_WORK/MinimizedBoard/Attiny48/i2ctest/CC1101/CC1101/cc1101q1.c ****         setChannel(bVal, false);
 545               	.LM59:
 546 0128 8A30      		cpi r24,lo8(10)
 547 012a 00F4      		brsh .L36
 405:/Users/davide/Documents/NQM_WORK/MinimizedBoard/Attiny48/i2ctest/CC1101/CC1101/cc1101q1.c ****     // Read Sync word from EEPROM
 549               	.LM60:
 550 012c 60E0      		ldi r22,0
 551 012e 00D0      		rcall setChannel
 552               	.L36:
 407:/Users/davide/Documents/NQM_WORK/MinimizedBoard/Attiny48/i2ctest/CC1101/CC1101/cc1101q1.c ****     arrV[1] = eeprom_read_byte(EEPROM_SYNC_WORD + 1);
 554               	.LM61:
 555 0130 82E0      		ldi r24,lo8(2)
 556 0132 90E0      		ldi r25,0
 557 0134 00D0      		rcall __eerd_byte_tn48
 558 0136 C82F      		mov r28,r24
 408:/Users/davide/Documents/NQM_WORK/MinimizedBoard/Attiny48/i2ctest/CC1101/CC1101/cc1101q1.c ****     // Set Sync word. 0x00 and 0xFF values are not allowed
 560               	.LM62:
 561 0138 83E0      		ldi r24,lo8(3)
 562 013a 90E0      		ldi r25,0
 563 013c 00D0      		rcall __eerd_byte_tn48
 410:/Users/davide/Documents/NQM_WORK/MinimizedBoard/Attiny48/i2ctest/CC1101/CC1101/cc1101q1.c ****         setSyncWord(arrV[0], arrV[1], false);
 565               	.LM63:
 566 013e 9FEF      		ldi r25,lo8(-1)
 567 0140 9C0F      		add r25,r28
 568 0142 9E3F      		cpi r25,lo8(-2)
 569 0144 00F0      		brlo .L37
 410:/Users/davide/Documents/NQM_WORK/MinimizedBoard/Attiny48/i2ctest/CC1101/CC1101/cc1101q1.c ****         setSyncWord(arrV[0], arrV[1], false);
 571               	.LM64:
 572 0146 9FEF      		ldi r25,lo8(-1)
 573 0148 980F      		add r25,r24
 574 014a 9E3F      		cpi r25,lo8(-2)
 575 014c 00F4      		brsh .L38
 576               	.L37:
 411:/Users/davide/Documents/NQM_WORK/MinimizedBoard/Attiny48/i2ctest/CC1101/CC1101/cc1101q1.c ****     // Read device address from EEPROM
 578               	.LM65:
 579 014e 40E0      		ldi r20,0
 580 0150 682F      		mov r22,r24
 581 0152 8C2F      		mov r24,r28
 582 0154 00D0      		rcall setSyncWord
 583               	.L38:
 413:/Users/davide/Documents/NQM_WORK/MinimizedBoard/Attiny48/i2ctest/CC1101/CC1101/cc1101q1.c ****     // Set device address
 585               	.LM66:
 586 0156 84E0      		ldi r24,lo8(4)
 587 0158 90E0      		ldi r25,0
 588 015a 00D0      		rcall __eerd_byte_tn48
 415:/Users/davide/Documents/NQM_WORK/MinimizedBoard/Attiny48/i2ctest/CC1101/CC1101/cc1101q1.c ****         setDevAddress(bVal, false);
 590               	.LM67:
 591 015c 8823      		tst r24
 592 015e 01F0      		breq .L35
 416:/Users/davide/Documents/NQM_WORK/MinimizedBoard/Attiny48/i2ctest/CC1101/CC1101/cc1101q1.c **** }
 594               	.LM68:
 595 0160 60E0      		ldi r22,0
 596               	/* epilogue start */
 417:/Users/davide/Documents/NQM_WORK/MinimizedBoard/Attiny48/i2ctest/CC1101/CC1101/cc1101q1.c **** 
 598               	.LM69:
 599 0162 CF91      		pop r28
 416:/Users/davide/Documents/NQM_WORK/MinimizedBoard/Attiny48/i2ctest/CC1101/CC1101/cc1101q1.c **** }
 601               	.LM70:
 602 0164 00C0      		rjmp setDevAddress
 603               	.L35:
 604               	/* epilogue start */
 417:/Users/davide/Documents/NQM_WORK/MinimizedBoard/Attiny48/i2ctest/CC1101/CC1101/cc1101q1.c **** 
 606               	.LM71:
 607 0166 CF91      		pop r28
 608 0168 0895      		ret
 610               	.Lscope10:
 613               	.global	setCarrierFreq
 615               	setCarrierFreq:
 368:/Users/davide/Documents/NQM_WORK/MinimizedBoard/Attiny48/i2ctest/CC1101/CC1101/cc1101q1.c ****     switch(freq)
 617               	.LM72:
 618               	.LFBB11:
 619 016a CF93      		push r28
 620               	/* prologue: function */
 621               	/* frame size = 0 */
 622               	/* stack size = 1 */
 623               	.L__stack_usage = 1
 624 016c C82F      		mov r28,r24
 369:/Users/davide/Documents/NQM_WORK/MinimizedBoard/Attiny48/i2ctest/CC1101/CC1101/cc1101q1.c ****     {
 626               	.LM73:
 627 016e 8130      		cpi r24,lo8(1)
 628 0170 01F0      		breq .L42
 629 0172 8230      		cpi r24,lo8(2)
 630 0174 01F4      		brne .L47
 377:/Users/davide/Documents/NQM_WORK/MinimizedBoard/Attiny48/i2ctest/CC1101/CC1101/cc1101q1.c ****             writeReg(CC1101_FREQ1,  CC1101_DEFVAL_FREQ1_433);
 632               	.LM74:
 633 0176 60E1      		ldi r22,lo8(16)
 634 0178 8DE0      		ldi r24,lo8(13)
 635 017a 00D0      		rcall writeReg
 378:/Users/davide/Documents/NQM_WORK/MinimizedBoard/Attiny48/i2ctest/CC1101/CC1101/cc1101q1.c ****             writeReg(CC1101_FREQ0,  CC1101_DEFVAL_FREQ0_433);
 637               	.LM75:
 638 017c 67EA      		ldi r22,lo8(-89)
 639 017e 8EE0      		ldi r24,lo8(14)
 640 0180 00D0      		rcall writeReg
 379:/Users/davide/Documents/NQM_WORK/MinimizedBoard/Attiny48/i2ctest/CC1101/CC1101/cc1101q1.c ****             break;
 642               	.LM76:
 643 0182 62E6      		ldi r22,lo8(98)
 644 0184 00C0      		rjmp .L46
 645               	.L42:
 372:/Users/davide/Documents/NQM_WORK/MinimizedBoard/Attiny48/i2ctest/CC1101/CC1101/cc1101q1.c ****             writeReg(CC1101_FREQ1,  CC1101_DEFVAL_FREQ1_915);
 647               	.LM77:
 648 0186 62E2      		ldi r22,lo8(34)
 649 0188 8DE0      		ldi r24,lo8(13)
 650 018a 00D0      		rcall writeReg
 373:/Users/davide/Documents/NQM_WORK/MinimizedBoard/Attiny48/i2ctest/CC1101/CC1101/cc1101q1.c ****             writeReg(CC1101_FREQ0,  CC1101_DEFVAL_FREQ0_915);
 652               	.LM78:
 653 018c 61EB      		ldi r22,lo8(-79)
 654 018e 8EE0      		ldi r24,lo8(14)
 655 0190 00D0      		rcall writeReg
 374:/Users/davide/Documents/NQM_WORK/MinimizedBoard/Attiny48/i2ctest/CC1101/CC1101/cc1101q1.c ****             break;
 657               	.LM79:
 658 0192 6BE3      		ldi r22,lo8(59)
 659 0194 00C0      		rjmp .L46
 660               	.L47:
 382:/Users/davide/Documents/NQM_WORK/MinimizedBoard/Attiny48/i2ctest/CC1101/CC1101/cc1101q1.c ****             writeReg(CC1101_FREQ1,  CC1101_DEFVAL_FREQ1_868);
 662               	.LM80:
 663 0196 61E2      		ldi r22,lo8(33)
 664 0198 8DE0      		ldi r24,lo8(13)
 665 019a 00D0      		rcall writeReg
 383:/Users/davide/Documents/NQM_WORK/MinimizedBoard/Attiny48/i2ctest/CC1101/CC1101/cc1101q1.c ****             writeReg(CC1101_FREQ0,  CC1101_DEFVAL_FREQ0_868);
 667               	.LM81:
 668 019c 62E6      		ldi r22,lo8(98)
 669 019e 8EE0      		ldi r24,lo8(14)
 670 01a0 00D0      		rcall writeReg
 384:/Users/davide/Documents/NQM_WORK/MinimizedBoard/Attiny48/i2ctest/CC1101/CC1101/cc1101q1.c ****             break;
 672               	.LM82:
 673 01a2 66E7      		ldi r22,lo8(118)
 674               	.L46:
 675 01a4 8FE0      		ldi r24,lo8(15)
 676 01a6 00D0      		rcall writeReg
 388:/Users/davide/Documents/NQM_WORK/MinimizedBoard/Attiny48/i2ctest/CC1101/CC1101/cc1101q1.c **** }
 678               	.LM83:
 679 01a8 C093 0000 		sts carrierFreq,r28
 680               	/* epilogue start */
 389:/Users/davide/Documents/NQM_WORK/MinimizedBoard/Attiny48/i2ctest/CC1101/CC1101/cc1101q1.c **** 
 682               	.LM84:
 683 01ac CF91      		pop r28
 684 01ae 0895      		ret
 686               	.Lscope11:
 688               	.global	setDefaultRegs
 690               	setDefaultRegs:
 205:/Users/davide/Documents/NQM_WORK/MinimizedBoard/Attiny48/i2ctest/CC1101/CC1101/cc1101q1.c ****     writeReg(CC1101_IOCFG2,  CC1101_DEFVAL_IOCFG2);
 692               	.LM85:
 693               	.LFBB12:
 694               	/* prologue: function */
 695               	/* frame size = 0 */
 696               	/* stack size = 0 */
 697               	.L__stack_usage = 0
 206:/Users/davide/Documents/NQM_WORK/MinimizedBoard/Attiny48/i2ctest/CC1101/CC1101/cc1101q1.c ****     writeReg(CC1101_IOCFG1,  CC1101_DEFVAL_IOCFG1);
 699               	.LM86:
 700 01b0 6EE2      		ldi r22,lo8(46)
 701 01b2 80E0      		ldi r24,0
 702 01b4 00D0      		rcall writeReg
 207:/Users/davide/Documents/NQM_WORK/MinimizedBoard/Attiny48/i2ctest/CC1101/CC1101/cc1101q1.c ****     writeReg(CC1101_IOCFG0,  CC1101_DEFVAL_IOCFG0);
 704               	.LM87:
 705 01b6 6EE2      		ldi r22,lo8(46)
 706 01b8 81E0      		ldi r24,lo8(1)
 707 01ba 00D0      		rcall writeReg
 208:/Users/davide/Documents/NQM_WORK/MinimizedBoard/Attiny48/i2ctest/CC1101/CC1101/cc1101q1.c ****     writeReg(CC1101_FIFOTHR,  CC1101_DEFVAL_FIFOTHR);
 709               	.LM88:
 710 01bc 66E0      		ldi r22,lo8(6)
 711 01be 82E0      		ldi r24,lo8(2)
 712 01c0 00D0      		rcall writeReg
 209:/Users/davide/Documents/NQM_WORK/MinimizedBoard/Attiny48/i2ctest/CC1101/CC1101/cc1101q1.c ****     writeReg(CC1101_PKTLEN,  CC1101_DEFVAL_PKTLEN);
 714               	.LM89:
 715 01c2 67E0      		ldi r22,lo8(7)
 716 01c4 83E0      		ldi r24,lo8(3)
 717 01c6 00D0      		rcall writeReg
 210:/Users/davide/Documents/NQM_WORK/MinimizedBoard/Attiny48/i2ctest/CC1101/CC1101/cc1101q1.c ****     writeReg(CC1101_PKTCTRL1,  CC1101_DEFVAL_PKTCTRL1);
 719               	.LM90:
 720 01c8 6DE3      		ldi r22,lo8(61)
 721 01ca 86E0      		ldi r24,lo8(6)
 722 01cc 00D0      		rcall writeReg
 211:/Users/davide/Documents/NQM_WORK/MinimizedBoard/Attiny48/i2ctest/CC1101/CC1101/cc1101q1.c ****     writeReg(CC1101_PKTCTRL0,  CC1101_DEFVAL_PKTCTRL0);
 724               	.LM91:
 725 01ce 66E0      		ldi r22,lo8(6)
 726 01d0 87E0      		ldi r24,lo8(7)
 727 01d2 00D0      		rcall writeReg
 212:/Users/davide/Documents/NQM_WORK/MinimizedBoard/Attiny48/i2ctest/CC1101/CC1101/cc1101q1.c ****     
 729               	.LM92:
 730 01d4 65E0      		ldi r22,lo8(5)
 731 01d6 88E0      		ldi r24,lo8(8)
 732 01d8 00D0      		rcall writeReg
 215:/Users/davide/Documents/NQM_WORK/MinimizedBoard/Attiny48/i2ctest/CC1101/CC1101/cc1101q1.c ****     
 734               	.LM93:
 735 01da 40E0      		ldi r20,0
 736 01dc 67E4      		ldi r22,lo8(71)
 737 01de 85EB      		ldi r24,lo8(-75)
 738 01e0 00D0      		rcall setSyncWord
 218:/Users/davide/Documents/NQM_WORK/MinimizedBoard/Attiny48/i2ctest/CC1101/CC1101/cc1101q1.c ****     // // Set default frequency channel
 740               	.LM94:
 741 01e2 60E0      		ldi r22,0
 742 01e4 8FEF      		ldi r24,lo8(-1)
 743 01e6 00D0      		rcall setDevAddress
 220:/Users/davide/Documents/NQM_WORK/MinimizedBoard/Attiny48/i2ctest/CC1101/CC1101/cc1101q1.c ****     
 745               	.LM95:
 746 01e8 60E0      		ldi r22,0
 747 01ea 80E0      		ldi r24,0
 748 01ec 00D0      		rcall setChannel
 222:/Users/davide/Documents/NQM_WORK/MinimizedBoard/Attiny48/i2ctest/CC1101/CC1101/cc1101q1.c ****     writeReg(CC1101_FSCTRL0,  CC1101_DEFVAL_FSCTRL0);
 750               	.LM96:
 751 01ee 68E0      		ldi r22,lo8(8)
 752 01f0 8BE0      		ldi r24,lo8(11)
 753 01f2 00D0      		rcall writeReg
 223:/Users/davide/Documents/NQM_WORK/MinimizedBoard/Attiny48/i2ctest/CC1101/CC1101/cc1101q1.c ****     
 755               	.LM97:
 756 01f4 60E0      		ldi r22,0
 757 01f6 8CE0      		ldi r24,lo8(12)
 758 01f8 00D0      		rcall writeReg
 226:/Users/davide/Documents/NQM_WORK/MinimizedBoard/Attiny48/i2ctest/CC1101/CC1101/cc1101q1.c ****     
 760               	.LM98:
 761 01fa 80E0      		ldi r24,0
 762 01fc 00D0      		rcall setCarrierFreq
 228:/Users/davide/Documents/NQM_WORK/MinimizedBoard/Attiny48/i2ctest/CC1101/CC1101/cc1101q1.c ****     writeReg(CC1101_MDMCFG3,  CC1101_DEFVAL_MDMCFG3);
 764               	.LM99:
 765 01fe 6AEC      		ldi r22,lo8(-54)
 766 0200 80E1      		ldi r24,lo8(16)
 767 0202 00D0      		rcall writeReg
 229:/Users/davide/Documents/NQM_WORK/MinimizedBoard/Attiny48/i2ctest/CC1101/CC1101/cc1101q1.c ****     writeReg(CC1101_MDMCFG2,  CC1101_DEFVAL_MDMCFG2);
 769               	.LM100:
 770 0204 63E8      		ldi r22,lo8(-125)
 771 0206 81E1      		ldi r24,lo8(17)
 772 0208 00D0      		rcall writeReg
 230:/Users/davide/Documents/NQM_WORK/MinimizedBoard/Attiny48/i2ctest/CC1101/CC1101/cc1101q1.c ****     writeReg(CC1101_MDMCFG1,  CC1101_DEFVAL_MDMCFG1);
 774               	.LM101:
 775 020a 63E9      		ldi r22,lo8(-109)
 776 020c 82E1      		ldi r24,lo8(18)
 777 020e 00D0      		rcall writeReg
 231:/Users/davide/Documents/NQM_WORK/MinimizedBoard/Attiny48/i2ctest/CC1101/CC1101/cc1101q1.c ****     writeReg(CC1101_MDMCFG0,  CC1101_DEFVAL_MDMCFG0);
 779               	.LM102:
 780 0210 62E2      		ldi r22,lo8(34)
 781 0212 83E1      		ldi r24,lo8(19)
 782 0214 00D0      		rcall writeReg
 232:/Users/davide/Documents/NQM_WORK/MinimizedBoard/Attiny48/i2ctest/CC1101/CC1101/cc1101q1.c ****     writeReg(CC1101_DEVIATN,  CC1101_DEFVAL_DEVIATN);
 784               	.LM103:
 785 0216 68EF      		ldi r22,lo8(-8)
 786 0218 84E1      		ldi r24,lo8(20)
 787 021a 00D0      		rcall writeReg
 233:/Users/davide/Documents/NQM_WORK/MinimizedBoard/Attiny48/i2ctest/CC1101/CC1101/cc1101q1.c ****     writeReg(CC1101_MCSM2,  CC1101_DEFVAL_MCSM2);
 789               	.LM104:
 790 021c 65E3      		ldi r22,lo8(53)
 791 021e 85E1      		ldi r24,lo8(21)
 792 0220 00D0      		rcall writeReg
 234:/Users/davide/Documents/NQM_WORK/MinimizedBoard/Attiny48/i2ctest/CC1101/CC1101/cc1101q1.c ****     writeReg(CC1101_MCSM1,  CC1101_DEFVAL_MCSM1);
 794               	.LM105:
 795 0222 67E0      		ldi r22,lo8(7)
 796 0224 86E1      		ldi r24,lo8(22)
 797 0226 00D0      		rcall writeReg
 235:/Users/davide/Documents/NQM_WORK/MinimizedBoard/Attiny48/i2ctest/CC1101/CC1101/cc1101q1.c ****     writeReg(CC1101_MCSM0,  CC1101_DEFVAL_MCSM0);
 799               	.LM106:
 800 0228 60E2      		ldi r22,lo8(32)
 801 022a 87E1      		ldi r24,lo8(23)
 802 022c 00D0      		rcall writeReg
 236:/Users/davide/Documents/NQM_WORK/MinimizedBoard/Attiny48/i2ctest/CC1101/CC1101/cc1101q1.c ****     writeReg(CC1101_FOCCFG,  CC1101_DEFVAL_FOCCFG);
 804               	.LM107:
 805 022e 68E1      		ldi r22,lo8(24)
 806 0230 88E1      		ldi r24,lo8(24)
 807 0232 00D0      		rcall writeReg
 237:/Users/davide/Documents/NQM_WORK/MinimizedBoard/Attiny48/i2ctest/CC1101/CC1101/cc1101q1.c ****     writeReg(CC1101_BSCFG,  CC1101_DEFVAL_BSCFG);
 809               	.LM108:
 810 0234 66E1      		ldi r22,lo8(22)
 811 0236 89E1      		ldi r24,lo8(25)
 812 0238 00D0      		rcall writeReg
 238:/Users/davide/Documents/NQM_WORK/MinimizedBoard/Attiny48/i2ctest/CC1101/CC1101/cc1101q1.c ****     writeReg(CC1101_AGCCTRL2,  CC1101_DEFVAL_AGCCTRL2);
 814               	.LM109:
 815 023a 6CE6      		ldi r22,lo8(108)
 816 023c 8AE1      		ldi r24,lo8(26)
 817 023e 00D0      		rcall writeReg
 239:/Users/davide/Documents/NQM_WORK/MinimizedBoard/Attiny48/i2ctest/CC1101/CC1101/cc1101q1.c ****     writeReg(CC1101_AGCCTRL1,  CC1101_DEFVAL_AGCCTRL1);
 819               	.LM110:
 820 0240 63E4      		ldi r22,lo8(67)
 821 0242 8BE1      		ldi r24,lo8(27)
 822 0244 00D0      		rcall writeReg
 240:/Users/davide/Documents/NQM_WORK/MinimizedBoard/Attiny48/i2ctest/CC1101/CC1101/cc1101q1.c ****     writeReg(CC1101_AGCCTRL0,  CC1101_DEFVAL_AGCCTRL0);
 824               	.LM111:
 825 0246 60E4      		ldi r22,lo8(64)
 826 0248 8CE1      		ldi r24,lo8(28)
 827 024a 00D0      		rcall writeReg
 241:/Users/davide/Documents/NQM_WORK/MinimizedBoard/Attiny48/i2ctest/CC1101/CC1101/cc1101q1.c ****     writeReg(CC1101_WOREVT1,  CC1101_DEFVAL_WOREVT1);
 829               	.LM112:
 830 024c 61E9      		ldi r22,lo8(-111)
 831 024e 8DE1      		ldi r24,lo8(29)
 832 0250 00D0      		rcall writeReg
 242:/Users/davide/Documents/NQM_WORK/MinimizedBoard/Attiny48/i2ctest/CC1101/CC1101/cc1101q1.c ****     writeReg(CC1101_WOREVT0,  CC1101_DEFVAL_WOREVT0);
 834               	.LM113:
 835 0252 67E8      		ldi r22,lo8(-121)
 836 0254 8EE1      		ldi r24,lo8(30)
 837 0256 00D0      		rcall writeReg
 243:/Users/davide/Documents/NQM_WORK/MinimizedBoard/Attiny48/i2ctest/CC1101/CC1101/cc1101q1.c ****     writeReg(CC1101_WORCTRL,  CC1101_DEFVAL_WORCTRL);
 839               	.LM114:
 840 0258 6BE6      		ldi r22,lo8(107)
 841 025a 8FE1      		ldi r24,lo8(31)
 842 025c 00D0      		rcall writeReg
 244:/Users/davide/Documents/NQM_WORK/MinimizedBoard/Attiny48/i2ctest/CC1101/CC1101/cc1101q1.c ****     writeReg(CC1101_FREND1,  CC1101_DEFVAL_FREND1);
 844               	.LM115:
 845 025e 6BEF      		ldi r22,lo8(-5)
 846 0260 80E2      		ldi r24,lo8(32)
 847 0262 00D0      		rcall writeReg
 245:/Users/davide/Documents/NQM_WORK/MinimizedBoard/Attiny48/i2ctest/CC1101/CC1101/cc1101q1.c ****     writeReg(CC1101_FREND0,  CC1101_DEFVAL_FREND0);
 849               	.LM116:
 850 0264 66E5      		ldi r22,lo8(86)
 851 0266 81E2      		ldi r24,lo8(33)
 852 0268 00D0      		rcall writeReg
 246:/Users/davide/Documents/NQM_WORK/MinimizedBoard/Attiny48/i2ctest/CC1101/CC1101/cc1101q1.c ****     writeReg(CC1101_FSCAL3,  CC1101_DEFVAL_FSCAL3);
 854               	.LM117:
 855 026a 60E1      		ldi r22,lo8(16)
 856 026c 82E2      		ldi r24,lo8(34)
 857 026e 00D0      		rcall writeReg
 247:/Users/davide/Documents/NQM_WORK/MinimizedBoard/Attiny48/i2ctest/CC1101/CC1101/cc1101q1.c ****     writeReg(CC1101_FSCAL2,  CC1101_DEFVAL_FSCAL2);
 859               	.LM118:
 860 0270 69EE      		ldi r22,lo8(-23)
 861 0272 83E2      		ldi r24,lo8(35)
 862 0274 00D0      		rcall writeReg
 248:/Users/davide/Documents/NQM_WORK/MinimizedBoard/Attiny48/i2ctest/CC1101/CC1101/cc1101q1.c ****     writeReg(CC1101_FSCAL1,  CC1101_DEFVAL_FSCAL1);
 864               	.LM119:
 865 0276 6AE2      		ldi r22,lo8(42)
 866 0278 84E2      		ldi r24,lo8(36)
 867 027a 00D0      		rcall writeReg
 249:/Users/davide/Documents/NQM_WORK/MinimizedBoard/Attiny48/i2ctest/CC1101/CC1101/cc1101q1.c ****     writeReg(CC1101_FSCAL0,  CC1101_DEFVAL_FSCAL0);
 869               	.LM120:
 870 027c 60E0      		ldi r22,0
 871 027e 85E2      		ldi r24,lo8(37)
 872 0280 00D0      		rcall writeReg
 250:/Users/davide/Documents/NQM_WORK/MinimizedBoard/Attiny48/i2ctest/CC1101/CC1101/cc1101q1.c ****     writeReg(CC1101_RCCTRL1,  CC1101_DEFVAL_RCCTRL1);
 874               	.LM121:
 875 0282 6FE1      		ldi r22,lo8(31)
 876 0284 86E2      		ldi r24,lo8(38)
 877 0286 00D0      		rcall writeReg
 251:/Users/davide/Documents/NQM_WORK/MinimizedBoard/Attiny48/i2ctest/CC1101/CC1101/cc1101q1.c ****     writeReg(CC1101_RCCTRL0,  CC1101_DEFVAL_RCCTRL0);
 879               	.LM122:
 880 0288 61E4      		ldi r22,lo8(65)
 881 028a 87E2      		ldi r24,lo8(39)
 882 028c 00D0      		rcall writeReg
 252:/Users/davide/Documents/NQM_WORK/MinimizedBoard/Attiny48/i2ctest/CC1101/CC1101/cc1101q1.c ****     writeReg(CC1101_FSTEST,  CC1101_DEFVAL_FSTEST);
 884               	.LM123:
 885 028e 60E0      		ldi r22,0
 886 0290 88E2      		ldi r24,lo8(40)
 887 0292 00D0      		rcall writeReg
 253:/Users/davide/Documents/NQM_WORK/MinimizedBoard/Attiny48/i2ctest/CC1101/CC1101/cc1101q1.c ****     writeReg(CC1101_PTEST,  CC1101_DEFVAL_PTEST);
 889               	.LM124:
 890 0294 69E5      		ldi r22,lo8(89)
 891 0296 89E2      		ldi r24,lo8(41)
 892 0298 00D0      		rcall writeReg
 254:/Users/davide/Documents/NQM_WORK/MinimizedBoard/Attiny48/i2ctest/CC1101/CC1101/cc1101q1.c ****     writeReg(CC1101_AGCTEST,  CC1101_DEFVAL_AGCTEST);
 894               	.LM125:
 895 029a 6FE7      		ldi r22,lo8(127)
 896 029c 8AE2      		ldi r24,lo8(42)
 897 029e 00D0      		rcall writeReg
 255:/Users/davide/Documents/NQM_WORK/MinimizedBoard/Attiny48/i2ctest/CC1101/CC1101/cc1101q1.c ****     writeReg(CC1101_TEST2,  CC1101_DEFVAL_TEST2);
 899               	.LM126:
 900 02a0 6FE3      		ldi r22,lo8(63)
 901 02a2 8BE2      		ldi r24,lo8(43)
 902 02a4 00D0      		rcall writeReg
 256:/Users/davide/Documents/NQM_WORK/MinimizedBoard/Attiny48/i2ctest/CC1101/CC1101/cc1101q1.c ****     writeReg(CC1101_TEST1,  CC1101_DEFVAL_TEST1);
 904               	.LM127:
 905 02a6 61E8      		ldi r22,lo8(-127)
 906 02a8 8CE2      		ldi r24,lo8(44)
 907 02aa 00D0      		rcall writeReg
 257:/Users/davide/Documents/NQM_WORK/MinimizedBoard/Attiny48/i2ctest/CC1101/CC1101/cc1101q1.c ****     writeReg(CC1101_TEST0,  CC1101_DEFVAL_TEST0);
 909               	.LM128:
 910 02ac 65E3      		ldi r22,lo8(53)
 911 02ae 8DE2      		ldi r24,lo8(45)
 912 02b0 00D0      		rcall writeReg
 258:/Users/davide/Documents/NQM_WORK/MinimizedBoard/Attiny48/i2ctest/CC1101/CC1101/cc1101q1.c **** }
 914               	.LM129:
 915 02b2 69E0      		ldi r22,lo8(9)
 916 02b4 8EE2      		ldi r24,lo8(46)
 917 02b6 00C0      		rjmp writeReg
 919               	.Lscope12:
 923               	.global	writeBurstReg
 925               	writeBurstReg:
  98:/Users/davide/Documents/NQM_WORK/MinimizedBoard/Attiny48/i2ctest/CC1101/CC1101/cc1101q1.c ****     byte addr, i;
 927               	.LM130:
 928               	.LFBB13:
 929 02b8 EF92      		push r14
 930 02ba FF92      		push r15
 931 02bc 0F93      		push r16
 932 02be 1F93      		push r17
 933 02c0 CF93      		push r28
 934 02c2 DF93      		push r29
 935 02c4 00D0      		rcall .
 936 02c6 CDB7      		in r28,__SP_L__
 937 02c8 DEB7      		in r29,__SP_H__
 938               	/* prologue: function */
 939               	/* frame size = 2 */
 940               	/* stack size = 8 */
 941               	.L__stack_usage = 8
 942 02ca 142F      		mov r17,r20
 101:/Users/davide/Documents/NQM_WORK/MinimizedBoard/Attiny48/i2ctest/CC1101/CC1101/cc1101q1.c ****     cc1101_Select();                      // Select CC1101
 944               	.LM131:
 945 02cc 8064      		ori r24,lo8(64)
 102:/Users/davide/Documents/NQM_WORK/MinimizedBoard/Attiny48/i2ctest/CC1101/CC1101/cc1101q1.c ****     wait_Miso();                          // Wait until MISO goes low
 947               	.LM132:
 948 02ce 2A98      		cbi 0x5,2
 949               	.L50:
 103:/Users/davide/Documents/NQM_WORK/MinimizedBoard/Attiny48/i2ctest/CC1101/CC1101/cc1101q1.c ****     spisend(addr);                       // Send register address
 951               	.LM133:
 952 02d0 1C99      		sbic 0x3,4
 953 02d2 00C0      		rjmp .L50
 104:/Users/davide/Documents/NQM_WORK/MinimizedBoard/Attiny48/i2ctest/CC1101/CC1101/cc1101q1.c ****     
 955               	.LM134:
 956 02d4 6983      		std Y+1,r22
 957 02d6 7A83      		std Y+2,r23
 958 02d8 00D0      		rcall spisend
 959 02da 6981      		ldd r22,Y+1
 960 02dc 062F      		mov r16,r22
 106:/Users/davide/Documents/NQM_WORK/MinimizedBoard/Attiny48/i2ctest/CC1101/CC1101/cc1101q1.c ****         spisend(buffer[i]);                // Send value
 962               	.LM135:
 963 02de E62E      		mov r14,r22
 964 02e0 7A81      		ldd r23,Y+2
 965 02e2 F72E      		mov r15,r23
 966               	.L51:
 967 02e4 8E2D      		mov r24,r14
 968 02e6 801B      		sub r24,r16
 106:/Users/davide/Documents/NQM_WORK/MinimizedBoard/Attiny48/i2ctest/CC1101/CC1101/cc1101q1.c ****         spisend(buffer[i]);                // Send value
 970               	.LM136:
 971 02e8 8117      		cp r24,r17
 972 02ea 00F4      		brsh .L54
 107:/Users/davide/Documents/NQM_WORK/MinimizedBoard/Attiny48/i2ctest/CC1101/CC1101/cc1101q1.c ****     
 974               	.LM137:
 975 02ec F701      		movw r30,r14
 976 02ee 8191      		ld r24,Z+
 977 02f0 7F01      		movw r14,r30
 978 02f2 00D0      		rcall spisend
 979 02f4 00C0      		rjmp .L51
 980               	.L54:
 109:/Users/davide/Documents/NQM_WORK/MinimizedBoard/Attiny48/i2ctest/CC1101/CC1101/cc1101q1.c **** }
 982               	.LM138:
 983 02f6 2A9A      		sbi 0x5,2
 984               	/* epilogue start */
 110:/Users/davide/Documents/NQM_WORK/MinimizedBoard/Attiny48/i2ctest/CC1101/CC1101/cc1101q1.c **** 
 986               	.LM139:
 987 02f8 0F90      		pop __tmp_reg__
 988 02fa 0F90      		pop __tmp_reg__
 989 02fc DF91      		pop r29
 990 02fe CF91      		pop r28
 991 0300 1F91      		pop r17
 992 0302 0F91      		pop r16
 993 0304 FF90      		pop r15
 994 0306 EF90      		pop r14
 995 0308 0895      		ret
 1000               	.Lscope13:
 1003               	.global	cmdStrobe
 1005               	cmdStrobe:
 120:/Users/davide/Documents/NQM_WORK/MinimizedBoard/Attiny48/i2ctest/CC1101/CC1101/cc1101q1.c ****     cc1101_Select();                      // Select CC1101
 1007               	.LM140:
 1008               	.LFBB14:
 1009               	/* prologue: function */
 1010               	/* frame size = 0 */
 1011               	/* stack size = 0 */
 1012               	.L__stack_usage = 0
 121:/Users/davide/Documents/NQM_WORK/MinimizedBoard/Attiny48/i2ctest/CC1101/CC1101/cc1101q1.c ****     wait_Miso();                          // Wait until MISO goes low
 1014               	.LM141:
 1015 030a 2A98      		cbi 0x5,2
 1016               	.L56:
 122:/Users/davide/Documents/NQM_WORK/MinimizedBoard/Attiny48/i2ctest/CC1101/CC1101/cc1101q1.c ****     spisend(cmd);                        // Send strobe command
 1018               	.LM142:
 1019 030c 1C99      		sbic 0x3,4
 1020 030e 00C0      		rjmp .L56
 123:/Users/davide/Documents/NQM_WORK/MinimizedBoard/Attiny48/i2ctest/CC1101/CC1101/cc1101q1.c ****     cc1101_Deselect();                    // Deselect CC1101
 1022               	.LM143:
 1023 0310 00D0      		rcall spisend
 124:/Users/davide/Documents/NQM_WORK/MinimizedBoard/Attiny48/i2ctest/CC1101/CC1101/cc1101q1.c **** }
 1025               	.LM144:
 1026 0312 2A9A      		sbi 0x5,2
 1027 0314 0895      		ret
 1029               	.Lscope14:
 1031               	.global	setPowerDownState
 1033               	setPowerDownState:
 425:/Users/davide/Documents/NQM_WORK/MinimizedBoard/Attiny48/i2ctest/CC1101/CC1101/cc1101q1.c ****     // Comming from RX state, we need to enter the IDLE state first
 1035               	.LM145:
 1036               	.LFBB15:
 1037               	/* prologue: function */
 1038               	/* frame size = 0 */
 1039               	/* stack size = 0 */
 1040               	.L__stack_usage = 0
 427:/Users/davide/Documents/NQM_WORK/MinimizedBoard/Attiny48/i2ctest/CC1101/CC1101/cc1101q1.c ****     // Enter Power-down state
 1042               	.LM146:
 1043 0316 86E3      		ldi r24,lo8(54)
 1044 0318 00D0      		rcall cmdStrobe
 429:/Users/davide/Documents/NQM_WORK/MinimizedBoard/Attiny48/i2ctest/CC1101/CC1101/cc1101q1.c **** }
 1046               	.LM147:
 1047 031a 89E3      		ldi r24,lo8(57)
 1048 031c 00C0      		rjmp cmdStrobe
 1050               	.Lscope15:
 1054               	.global	readReg
 1056               	readReg:
 139:/Users/davide/Documents/NQM_WORK/MinimizedBoard/Attiny48/i2ctest/CC1101/CC1101/cc1101q1.c ****     byte addr, val;
 1058               	.LM148:
 1059               	.LFBB16:
 1060               	/* prologue: function */
 1061               	/* frame size = 0 */
 1062               	/* stack size = 0 */
 1063               	.L__stack_usage = 0
 142:/Users/davide/Documents/NQM_WORK/MinimizedBoard/Attiny48/i2ctest/CC1101/CC1101/cc1101q1.c ****     cc1101_Select();                      // Select CC1101
 1065               	.LM149:
 1066 031e 862B      		or r24,r22
 143:/Users/davide/Documents/NQM_WORK/MinimizedBoard/Attiny48/i2ctest/CC1101/CC1101/cc1101q1.c ****     wait_Miso();                          // Wait until MISO goes low
 1068               	.LM150:
 1069 0320 2A98      		cbi 0x5,2
 1070               	.L60:
 144:/Users/davide/Documents/NQM_WORK/MinimizedBoard/Attiny48/i2ctest/CC1101/CC1101/cc1101q1.c ****     spisend(addr);                       // Send register address
 1072               	.LM151:
 1073 0322 1C99      		sbic 0x3,4
 1074 0324 00C0      		rjmp .L60
 145:/Users/davide/Documents/NQM_WORK/MinimizedBoard/Attiny48/i2ctest/CC1101/CC1101/cc1101q1.c ****     val = spisend(0x00);                 // Read result
 1076               	.LM152:
 1077 0326 00D0      		rcall spisend
 146:/Users/davide/Documents/NQM_WORK/MinimizedBoard/Attiny48/i2ctest/CC1101/CC1101/cc1101q1.c ****     cc1101_Deselect();                    // Deselect CC1101
 1079               	.LM153:
 1080 0328 80E0      		ldi r24,0
 1081 032a 00D0      		rcall spisend
 147:/Users/davide/Documents/NQM_WORK/MinimizedBoard/Attiny48/i2ctest/CC1101/CC1101/cc1101q1.c ****     
 1083               	.LM154:
 1084 032c 2A9A      		sbi 0x5,2
 150:/Users/davide/Documents/NQM_WORK/MinimizedBoard/Attiny48/i2ctest/CC1101/CC1101/cc1101q1.c **** 
 1086               	.LM155:
 1087 032e 0895      		ret
 1092               	.Lscope16:
 1095               	.global	sendData
 1097               	sendData:
 444:/Users/davide/Documents/NQM_WORK/MinimizedBoard/Attiny48/i2ctest/CC1101/CC1101/cc1101q1.c ****     byte marcState;
 1099               	.LM156:
 1100               	.LFBB17:
 1101 0330 0F93      		push r16
 1102 0332 1F93      		push r17
 1103 0334 CF93      		push r28
 1104 0336 DF93      		push r29
 1105 0338 CDB7      		in r28,__SP_L__
 1106 033a DEB7      		in r29,__SP_H__
 1107               	/* prologue: function */
 1108               	/* frame size = 0 */
 1109               	/* stack size = 4 */
 1110               	.L__stack_usage = 4
 450:/Users/davide/Documents/NQM_WORK/MinimizedBoard/Attiny48/i2ctest/CC1101/CC1101/cc1101q1.c ****     
 1112               	.LM157:
 1113 033c 82E0      		ldi r24,lo8(2)
 1114 033e 8093 0000 		sts rfState,r24
 453:/Users/davide/Documents/NQM_WORK/MinimizedBoard/Attiny48/i2ctest/CC1101/CC1101/cc1101q1.c ****     
 1116               	.LM158:
 1117 0342 84E3      		ldi r24,lo8(52)
 1118               	.L79:
 460:/Users/davide/Documents/NQM_WORK/MinimizedBoard/Attiny48/i2ctest/CC1101/CC1101/cc1101q1.c ****     }
 1120               	.LM159:
 1121 0344 00D0      		rcall cmdStrobe
 1122               	.L64:
 457:/Users/davide/Documents/NQM_WORK/MinimizedBoard/Attiny48/i2ctest/CC1101/CC1101/cc1101q1.c ****     {
 1124               	.LM160:
 1125 0346 60EC      		ldi r22,lo8(-64)
 1126 0348 85E3      		ldi r24,lo8(53)
 1127 034a 00D0      		rcall readReg
 1128 034c 982F      		mov r25,r24
 1129 034e 9F71      		andi r25,lo8(31)
 1130 0350 9D30      		cpi r25,lo8(13)
 1131 0352 01F0      		breq .L80
 459:/Users/davide/Documents/NQM_WORK/MinimizedBoard/Attiny48/i2ctest/CC1101/CC1101/cc1101q1.c ****             flushRxFifo();              // flush receive queue
 1133               	.LM161:
 1134 0354 8131      		cpi r24,lo8(17)
 1135 0356 01F4      		brne .L64
 460:/Users/davide/Documents/NQM_WORK/MinimizedBoard/Attiny48/i2ctest/CC1101/CC1101/cc1101q1.c ****     }
 1137               	.LM162:
 1138 0358 8AE3      		ldi r24,lo8(58)
 1139 035a 00C0      		rjmp .L79
 1140               	.L80:
 1141               	.LBB30:
 1142               	.LBB31:
 1144               	.Ltext1:
   1:/usr/local/Cellar/avr-gcc/4.9.3/avr/include/util/delay.h **** /* Copyright (c) 2002, Marek Michalkiewicz
   2:/usr/local/Cellar/avr-gcc/4.9.3/avr/include/util/delay.h ****    Copyright (c) 2004,2005,2007 Joerg Wunsch
   3:/usr/local/Cellar/avr-gcc/4.9.3/avr/include/util/delay.h ****    Copyright (c) 2007  Florin-Viorel Petrov
   4:/usr/local/Cellar/avr-gcc/4.9.3/avr/include/util/delay.h ****    All rights reserved.
   5:/usr/local/Cellar/avr-gcc/4.9.3/avr/include/util/delay.h **** 
   6:/usr/local/Cellar/avr-gcc/4.9.3/avr/include/util/delay.h ****    Redistribution and use in source and binary forms, with or without
   7:/usr/local/Cellar/avr-gcc/4.9.3/avr/include/util/delay.h ****    modification, are permitted provided that the following conditions are met:
   8:/usr/local/Cellar/avr-gcc/4.9.3/avr/include/util/delay.h **** 
   9:/usr/local/Cellar/avr-gcc/4.9.3/avr/include/util/delay.h ****    * Redistributions of source code must retain the above copyright
  10:/usr/local/Cellar/avr-gcc/4.9.3/avr/include/util/delay.h ****      notice, this list of conditions and the following disclaimer.
  11:/usr/local/Cellar/avr-gcc/4.9.3/avr/include/util/delay.h **** 
  12:/usr/local/Cellar/avr-gcc/4.9.3/avr/include/util/delay.h ****    * Redistributions in binary form must reproduce the above copyright
  13:/usr/local/Cellar/avr-gcc/4.9.3/avr/include/util/delay.h ****      notice, this list of conditions and the following disclaimer in
  14:/usr/local/Cellar/avr-gcc/4.9.3/avr/include/util/delay.h ****      the documentation and/or other materials provided with the
  15:/usr/local/Cellar/avr-gcc/4.9.3/avr/include/util/delay.h ****      distribution.
  16:/usr/local/Cellar/avr-gcc/4.9.3/avr/include/util/delay.h **** 
  17:/usr/local/Cellar/avr-gcc/4.9.3/avr/include/util/delay.h ****    * Neither the name of the copyright holders nor the names of
  18:/usr/local/Cellar/avr-gcc/4.9.3/avr/include/util/delay.h ****      contributors may be used to endorse or promote products derived
  19:/usr/local/Cellar/avr-gcc/4.9.3/avr/include/util/delay.h ****      from this software without specific prior written permission.
  20:/usr/local/Cellar/avr-gcc/4.9.3/avr/include/util/delay.h **** 
  21:/usr/local/Cellar/avr-gcc/4.9.3/avr/include/util/delay.h ****   THIS SOFTWARE IS PROVIDED BY THE COPYRIGHT HOLDERS AND CONTRIBUTORS "AS IS"
  22:/usr/local/Cellar/avr-gcc/4.9.3/avr/include/util/delay.h ****   AND ANY EXPRESS OR IMPLIED WARRANTIES, INCLUDING, BUT NOT LIMITED TO, THE
  23:/usr/local/Cellar/avr-gcc/4.9.3/avr/include/util/delay.h ****   IMPLIED WARRANTIES OF MERCHANTABILITY AND FITNESS FOR A PARTICULAR PURPOSE
  24:/usr/local/Cellar/avr-gcc/4.9.3/avr/include/util/delay.h ****   ARE DISCLAIMED. IN NO EVENT SHALL THE COPYRIGHT OWNER OR CONTRIBUTORS BE
  25:/usr/local/Cellar/avr-gcc/4.9.3/avr/include/util/delay.h ****   LIABLE FOR ANY DIRECT, INDIRECT, INCIDENTAL, SPECIAL, EXEMPLARY, OR
  26:/usr/local/Cellar/avr-gcc/4.9.3/avr/include/util/delay.h ****   CONSEQUENTIAL DAMAGES (INCLUDING, BUT NOT LIMITED TO, PROCUREMENT OF
  27:/usr/local/Cellar/avr-gcc/4.9.3/avr/include/util/delay.h ****   SUBSTITUTE GOODS OR SERVICES; LOSS OF USE, DATA, OR PROFITS; OR BUSINESS
  28:/usr/local/Cellar/avr-gcc/4.9.3/avr/include/util/delay.h ****   INTERRUPTION) HOWEVER CAUSED AND ON ANY THEORY OF LIABILITY, WHETHER IN
  29:/usr/local/Cellar/avr-gcc/4.9.3/avr/include/util/delay.h ****   CONTRACT, STRICT LIABILITY, OR TORT (INCLUDING NEGLIGENCE OR OTHERWISE)
  30:/usr/local/Cellar/avr-gcc/4.9.3/avr/include/util/delay.h ****   ARISING IN ANY WAY OUT OF THE USE OF THIS SOFTWARE, EVEN IF ADVISED OF THE
  31:/usr/local/Cellar/avr-gcc/4.9.3/avr/include/util/delay.h ****   POSSIBILITY OF SUCH DAMAGE. */
  32:/usr/local/Cellar/avr-gcc/4.9.3/avr/include/util/delay.h **** 
  33:/usr/local/Cellar/avr-gcc/4.9.3/avr/include/util/delay.h **** /* $Id: delay.h.in 2385 2013-05-03 13:14:20Z joerg_wunsch $ */
  34:/usr/local/Cellar/avr-gcc/4.9.3/avr/include/util/delay.h **** 
  35:/usr/local/Cellar/avr-gcc/4.9.3/avr/include/util/delay.h **** #ifndef _UTIL_DELAY_H_
  36:/usr/local/Cellar/avr-gcc/4.9.3/avr/include/util/delay.h **** #define _UTIL_DELAY_H_ 1
  37:/usr/local/Cellar/avr-gcc/4.9.3/avr/include/util/delay.h **** 
  38:/usr/local/Cellar/avr-gcc/4.9.3/avr/include/util/delay.h **** #ifndef __HAS_DELAY_CYCLES
  39:/usr/local/Cellar/avr-gcc/4.9.3/avr/include/util/delay.h **** #define __HAS_DELAY_CYCLES 1
  40:/usr/local/Cellar/avr-gcc/4.9.3/avr/include/util/delay.h **** #endif
  41:/usr/local/Cellar/avr-gcc/4.9.3/avr/include/util/delay.h **** 
  42:/usr/local/Cellar/avr-gcc/4.9.3/avr/include/util/delay.h **** #include <inttypes.h>
  43:/usr/local/Cellar/avr-gcc/4.9.3/avr/include/util/delay.h **** #include <util/delay_basic.h>
  44:/usr/local/Cellar/avr-gcc/4.9.3/avr/include/util/delay.h **** #include <math.h>
  45:/usr/local/Cellar/avr-gcc/4.9.3/avr/include/util/delay.h **** 
  46:/usr/local/Cellar/avr-gcc/4.9.3/avr/include/util/delay.h **** /** \file */
  47:/usr/local/Cellar/avr-gcc/4.9.3/avr/include/util/delay.h **** /** \defgroup util_delay <util/delay.h>: Convenience functions for busy-wait delay loops
  48:/usr/local/Cellar/avr-gcc/4.9.3/avr/include/util/delay.h ****     \code
  49:/usr/local/Cellar/avr-gcc/4.9.3/avr/include/util/delay.h ****     #define F_CPU 1000000UL  // 1 MHz
  50:/usr/local/Cellar/avr-gcc/4.9.3/avr/include/util/delay.h ****     //#define F_CPU 14.7456E6
  51:/usr/local/Cellar/avr-gcc/4.9.3/avr/include/util/delay.h ****     #include <util/delay.h>
  52:/usr/local/Cellar/avr-gcc/4.9.3/avr/include/util/delay.h ****     \endcode
  53:/usr/local/Cellar/avr-gcc/4.9.3/avr/include/util/delay.h **** 
  54:/usr/local/Cellar/avr-gcc/4.9.3/avr/include/util/delay.h ****     \note As an alternative method, it is possible to pass the
  55:/usr/local/Cellar/avr-gcc/4.9.3/avr/include/util/delay.h ****     F_CPU macro down to the compiler from the Makefile.
  56:/usr/local/Cellar/avr-gcc/4.9.3/avr/include/util/delay.h ****     Obviously, in that case, no \c \#define statement should be
  57:/usr/local/Cellar/avr-gcc/4.9.3/avr/include/util/delay.h ****     used.
  58:/usr/local/Cellar/avr-gcc/4.9.3/avr/include/util/delay.h **** 
  59:/usr/local/Cellar/avr-gcc/4.9.3/avr/include/util/delay.h ****     The functions in this header file are wrappers around the basic
  60:/usr/local/Cellar/avr-gcc/4.9.3/avr/include/util/delay.h ****     busy-wait functions from <util/delay_basic.h>.  They are meant as
  61:/usr/local/Cellar/avr-gcc/4.9.3/avr/include/util/delay.h ****     convenience functions where actual time values can be specified
  62:/usr/local/Cellar/avr-gcc/4.9.3/avr/include/util/delay.h ****     rather than a number of cycles to wait for.  The idea behind is
  63:/usr/local/Cellar/avr-gcc/4.9.3/avr/include/util/delay.h ****     that compile-time constant expressions will be eliminated by
  64:/usr/local/Cellar/avr-gcc/4.9.3/avr/include/util/delay.h ****     compiler optimization so floating-point expressions can be used
  65:/usr/local/Cellar/avr-gcc/4.9.3/avr/include/util/delay.h ****     to calculate the number of delay cycles needed based on the CPU
  66:/usr/local/Cellar/avr-gcc/4.9.3/avr/include/util/delay.h ****     frequency passed by the macro F_CPU.
  67:/usr/local/Cellar/avr-gcc/4.9.3/avr/include/util/delay.h **** 
  68:/usr/local/Cellar/avr-gcc/4.9.3/avr/include/util/delay.h ****     \note In order for these functions to work as intended, compiler
  69:/usr/local/Cellar/avr-gcc/4.9.3/avr/include/util/delay.h ****     optimizations <em>must</em> be enabled, and the delay time
  70:/usr/local/Cellar/avr-gcc/4.9.3/avr/include/util/delay.h ****     <em>must</em> be an expression that is a known constant at
  71:/usr/local/Cellar/avr-gcc/4.9.3/avr/include/util/delay.h ****     compile-time.  If these requirements are not met, the resulting
  72:/usr/local/Cellar/avr-gcc/4.9.3/avr/include/util/delay.h ****     delay will be much longer (and basically unpredictable), and
  73:/usr/local/Cellar/avr-gcc/4.9.3/avr/include/util/delay.h ****     applications that otherwise do not use floating-point calculations
  74:/usr/local/Cellar/avr-gcc/4.9.3/avr/include/util/delay.h ****     will experience severe code bloat by the floating-point library
  75:/usr/local/Cellar/avr-gcc/4.9.3/avr/include/util/delay.h ****     routines linked into the application.
  76:/usr/local/Cellar/avr-gcc/4.9.3/avr/include/util/delay.h **** 
  77:/usr/local/Cellar/avr-gcc/4.9.3/avr/include/util/delay.h ****     The functions available allow the specification of microsecond, and
  78:/usr/local/Cellar/avr-gcc/4.9.3/avr/include/util/delay.h ****     millisecond delays directly, using the application-supplied macro
  79:/usr/local/Cellar/avr-gcc/4.9.3/avr/include/util/delay.h ****     F_CPU as the CPU clock frequency (in Hertz).
  80:/usr/local/Cellar/avr-gcc/4.9.3/avr/include/util/delay.h **** 
  81:/usr/local/Cellar/avr-gcc/4.9.3/avr/include/util/delay.h **** */
  82:/usr/local/Cellar/avr-gcc/4.9.3/avr/include/util/delay.h **** 
  83:/usr/local/Cellar/avr-gcc/4.9.3/avr/include/util/delay.h **** #if !defined(__DOXYGEN__)
  84:/usr/local/Cellar/avr-gcc/4.9.3/avr/include/util/delay.h **** static inline void _delay_us(double __us) __attribute__((always_inline));
  85:/usr/local/Cellar/avr-gcc/4.9.3/avr/include/util/delay.h **** static inline void _delay_ms(double __ms) __attribute__((always_inline));
  86:/usr/local/Cellar/avr-gcc/4.9.3/avr/include/util/delay.h **** #endif
  87:/usr/local/Cellar/avr-gcc/4.9.3/avr/include/util/delay.h **** 
  88:/usr/local/Cellar/avr-gcc/4.9.3/avr/include/util/delay.h **** #ifndef F_CPU
  89:/usr/local/Cellar/avr-gcc/4.9.3/avr/include/util/delay.h **** /* prevent compiler error by supplying a default */
  90:/usr/local/Cellar/avr-gcc/4.9.3/avr/include/util/delay.h **** # warning "F_CPU not defined for <util/delay.h>"
  91:/usr/local/Cellar/avr-gcc/4.9.3/avr/include/util/delay.h **** # define F_CPU 1000000UL
  92:/usr/local/Cellar/avr-gcc/4.9.3/avr/include/util/delay.h **** #endif
  93:/usr/local/Cellar/avr-gcc/4.9.3/avr/include/util/delay.h **** 
  94:/usr/local/Cellar/avr-gcc/4.9.3/avr/include/util/delay.h **** #ifndef __OPTIMIZE__
  95:/usr/local/Cellar/avr-gcc/4.9.3/avr/include/util/delay.h **** # warning "Compiler optimizations disabled; functions from <util/delay.h> won't work as designed"
  96:/usr/local/Cellar/avr-gcc/4.9.3/avr/include/util/delay.h **** #endif
  97:/usr/local/Cellar/avr-gcc/4.9.3/avr/include/util/delay.h **** 
  98:/usr/local/Cellar/avr-gcc/4.9.3/avr/include/util/delay.h **** #if __HAS_DELAY_CYCLES && defined(__OPTIMIZE__) && \
  99:/usr/local/Cellar/avr-gcc/4.9.3/avr/include/util/delay.h ****   !defined(__DELAY_BACKWARD_COMPATIBLE__) &&	   \
 100:/usr/local/Cellar/avr-gcc/4.9.3/avr/include/util/delay.h ****   __STDC_HOSTED__
 101:/usr/local/Cellar/avr-gcc/4.9.3/avr/include/util/delay.h **** #  include <math.h>
 102:/usr/local/Cellar/avr-gcc/4.9.3/avr/include/util/delay.h **** #endif
 103:/usr/local/Cellar/avr-gcc/4.9.3/avr/include/util/delay.h **** 
 104:/usr/local/Cellar/avr-gcc/4.9.3/avr/include/util/delay.h **** /**
 105:/usr/local/Cellar/avr-gcc/4.9.3/avr/include/util/delay.h ****    \ingroup util_delay
 106:/usr/local/Cellar/avr-gcc/4.9.3/avr/include/util/delay.h **** 
 107:/usr/local/Cellar/avr-gcc/4.9.3/avr/include/util/delay.h ****    Perform a delay of \c __ms milliseconds, using _delay_loop_2().
 108:/usr/local/Cellar/avr-gcc/4.9.3/avr/include/util/delay.h **** 
 109:/usr/local/Cellar/avr-gcc/4.9.3/avr/include/util/delay.h ****    The macro F_CPU is supposed to be defined to a
 110:/usr/local/Cellar/avr-gcc/4.9.3/avr/include/util/delay.h ****    constant defining the CPU clock frequency (in Hertz).
 111:/usr/local/Cellar/avr-gcc/4.9.3/avr/include/util/delay.h **** 
 112:/usr/local/Cellar/avr-gcc/4.9.3/avr/include/util/delay.h ****    The maximal possible delay is 262.14 ms / F_CPU in MHz.
 113:/usr/local/Cellar/avr-gcc/4.9.3/avr/include/util/delay.h **** 
 114:/usr/local/Cellar/avr-gcc/4.9.3/avr/include/util/delay.h ****    When the user request delay which exceed the maximum possible one,
 115:/usr/local/Cellar/avr-gcc/4.9.3/avr/include/util/delay.h ****    _delay_ms() provides a decreased resolution functionality. In this
 116:/usr/local/Cellar/avr-gcc/4.9.3/avr/include/util/delay.h ****    mode _delay_ms() will work with a resolution of 1/10 ms, providing
 117:/usr/local/Cellar/avr-gcc/4.9.3/avr/include/util/delay.h ****    delays up to 6.5535 seconds (independent from CPU frequency).  The
 118:/usr/local/Cellar/avr-gcc/4.9.3/avr/include/util/delay.h ****    user will not be informed about decreased resolution.
 119:/usr/local/Cellar/avr-gcc/4.9.3/avr/include/util/delay.h **** 
 120:/usr/local/Cellar/avr-gcc/4.9.3/avr/include/util/delay.h ****    If the avr-gcc toolchain has __builtin_avr_delay_cycles(unsigned long)
 121:/usr/local/Cellar/avr-gcc/4.9.3/avr/include/util/delay.h ****    support, maximal possible delay is 4294967.295 ms/ F_CPU in MHz. For
 122:/usr/local/Cellar/avr-gcc/4.9.3/avr/include/util/delay.h ****    values greater than the maximal possible delay, overflows results in
 123:/usr/local/Cellar/avr-gcc/4.9.3/avr/include/util/delay.h ****    no delay i.e., 0ms.
 124:/usr/local/Cellar/avr-gcc/4.9.3/avr/include/util/delay.h **** 
 125:/usr/local/Cellar/avr-gcc/4.9.3/avr/include/util/delay.h ****    Conversion of __us into clock cycles may not always result in integer.
 126:/usr/local/Cellar/avr-gcc/4.9.3/avr/include/util/delay.h ****    By default, the clock cycles rounded up to next integer. This ensures that
 127:/usr/local/Cellar/avr-gcc/4.9.3/avr/include/util/delay.h ****    the user gets atleast __us microseconds of delay.
 128:/usr/local/Cellar/avr-gcc/4.9.3/avr/include/util/delay.h **** 
 129:/usr/local/Cellar/avr-gcc/4.9.3/avr/include/util/delay.h ****    Alternatively, user can define __DELAY_ROUND_DOWN__ and __DELAY_ROUND_CLOSEST__
 130:/usr/local/Cellar/avr-gcc/4.9.3/avr/include/util/delay.h ****    to round down and round to closest integer.
 131:/usr/local/Cellar/avr-gcc/4.9.3/avr/include/util/delay.h **** 
 132:/usr/local/Cellar/avr-gcc/4.9.3/avr/include/util/delay.h ****    Note: The new implementation of _delay_ms(double __ms) with 
 133:/usr/local/Cellar/avr-gcc/4.9.3/avr/include/util/delay.h ****     __builtin_avr_delay_cycles(unsigned long) support is not backward compatible. 
 134:/usr/local/Cellar/avr-gcc/4.9.3/avr/include/util/delay.h ****    User can define __DELAY_BACKWARD_COMPATIBLE__ to get a backward compatible delay.
 135:/usr/local/Cellar/avr-gcc/4.9.3/avr/include/util/delay.h ****    Also, the backward compatible
 136:/usr/local/Cellar/avr-gcc/4.9.3/avr/include/util/delay.h ****    algorithm will be chosen if the code is compiled in a <em>freestanding
 137:/usr/local/Cellar/avr-gcc/4.9.3/avr/include/util/delay.h ****    environment</em> (GCC option \c -ffreestanding), as the math functions
 138:/usr/local/Cellar/avr-gcc/4.9.3/avr/include/util/delay.h ****    required for rounding are not available to the compiler then.
 139:/usr/local/Cellar/avr-gcc/4.9.3/avr/include/util/delay.h **** 
 140:/usr/local/Cellar/avr-gcc/4.9.3/avr/include/util/delay.h ****  */
 141:/usr/local/Cellar/avr-gcc/4.9.3/avr/include/util/delay.h **** void
 142:/usr/local/Cellar/avr-gcc/4.9.3/avr/include/util/delay.h **** _delay_ms(double __ms)
 143:/usr/local/Cellar/avr-gcc/4.9.3/avr/include/util/delay.h **** {
 144:/usr/local/Cellar/avr-gcc/4.9.3/avr/include/util/delay.h **** 	double __tmp ; 
 145:/usr/local/Cellar/avr-gcc/4.9.3/avr/include/util/delay.h **** #if __HAS_DELAY_CYCLES && defined(__OPTIMIZE__) && \
 146:/usr/local/Cellar/avr-gcc/4.9.3/avr/include/util/delay.h ****   !defined(__DELAY_BACKWARD_COMPATIBLE__) &&	   \
 147:/usr/local/Cellar/avr-gcc/4.9.3/avr/include/util/delay.h ****   __STDC_HOSTED__
 148:/usr/local/Cellar/avr-gcc/4.9.3/avr/include/util/delay.h **** 	uint32_t __ticks_dc;
 149:/usr/local/Cellar/avr-gcc/4.9.3/avr/include/util/delay.h **** 	extern void __builtin_avr_delay_cycles(unsigned long);
 150:/usr/local/Cellar/avr-gcc/4.9.3/avr/include/util/delay.h **** 	__tmp = ((F_CPU) / 1e3) * __ms;
 151:/usr/local/Cellar/avr-gcc/4.9.3/avr/include/util/delay.h **** 
 152:/usr/local/Cellar/avr-gcc/4.9.3/avr/include/util/delay.h **** 	#if defined(__DELAY_ROUND_DOWN__)
 153:/usr/local/Cellar/avr-gcc/4.9.3/avr/include/util/delay.h **** 		__ticks_dc = (uint32_t)fabs(__tmp);
 154:/usr/local/Cellar/avr-gcc/4.9.3/avr/include/util/delay.h **** 
 155:/usr/local/Cellar/avr-gcc/4.9.3/avr/include/util/delay.h **** 	#elif defined(__DELAY_ROUND_CLOSEST__)
 156:/usr/local/Cellar/avr-gcc/4.9.3/avr/include/util/delay.h **** 		__ticks_dc = (uint32_t)(fabs(__tmp)+0.5);
 157:/usr/local/Cellar/avr-gcc/4.9.3/avr/include/util/delay.h **** 
 158:/usr/local/Cellar/avr-gcc/4.9.3/avr/include/util/delay.h **** 	#else
 159:/usr/local/Cellar/avr-gcc/4.9.3/avr/include/util/delay.h **** 		//round up by default
 160:/usr/local/Cellar/avr-gcc/4.9.3/avr/include/util/delay.h **** 		__ticks_dc = (uint32_t)(ceil(fabs(__tmp)));
 161:/usr/local/Cellar/avr-gcc/4.9.3/avr/include/util/delay.h **** 	#endif
 162:/usr/local/Cellar/avr-gcc/4.9.3/avr/include/util/delay.h **** 
 163:/usr/local/Cellar/avr-gcc/4.9.3/avr/include/util/delay.h **** 	__builtin_avr_delay_cycles(__ticks_dc);
 1146               	.LM163:
 1147 035c 2FE7      		ldi r18,lo8(399999)
 1148 035e 8AE1      		ldi r24,hi8(399999)
 1149 0360 96E0      		ldi r25,hlo8(399999)
 1150 0362 2150      		1: subi r18,1
 1151 0364 8040      		sbci r24,0
 1152 0366 9040      		sbci r25,0
 1153 0368 01F4      		brne 1b
 1154 036a 00C0      		rjmp .
 1155 036c 0000      		nop
 1156               	.LBE31:
 1157               	.LBE30:
 1159               	.Ltext2:
 466:/Users/davide/Documents/NQM_WORK/MinimizedBoard/Attiny48/i2ctest/CC1101/CC1101/cc1101q1.c ****     // Write data into the TX FIFO
 1161               	.LM164:
 1162 036e 8E01      		movw r16,r28
 1163 0370 095F      		subi r16,-7
 1164 0372 1F4F      		sbci r17,-1
 1165 0374 F801      		movw r30,r16
 1166 0376 6191      		ld r22,Z+
 1167 0378 8F01      		movw r16,r30
 1168 037a 8FE3      		ldi r24,lo8(63)
 1169 037c 00D0      		rcall writeReg
 468:/Users/davide/Documents/NQM_WORK/MinimizedBoard/Attiny48/i2ctest/CC1101/CC1101/cc1101q1.c ****     
 1171               	.LM165:
 1172 037e 4F81      		ldd r20,Y+7
 1173 0380 B801      		movw r22,r16
 1174 0382 8FE3      		ldi r24,lo8(63)
 1175 0384 00D0      		rcall writeBurstReg
 471:/Users/davide/Documents/NQM_WORK/MinimizedBoard/Attiny48/i2ctest/CC1101/CC1101/cc1101q1.c ****     
 1177               	.LM166:
 1178 0386 85E3      		ldi r24,lo8(53)
 1179 0388 00D0      		rcall cmdStrobe
 474:/Users/davide/Documents/NQM_WORK/MinimizedBoard/Attiny48/i2ctest/CC1101/CC1101/cc1101q1.c ****     if((marcState != 0x13) && (marcState != 0x14) && (marcState != 0x15))
 1181               	.LM167:
 1182 038a 60EC      		ldi r22,lo8(-64)
 1183 038c 85E3      		ldi r24,lo8(53)
 1184 038e 00D0      		rcall readReg
 1185 0390 8F71      		andi r24,lo8(31)
 475:/Users/davide/Documents/NQM_WORK/MinimizedBoard/Attiny48/i2ctest/CC1101/CC1101/cc1101q1.c ****     {
 1187               	.LM168:
 1188 0392 8351      		subi r24,lo8(-(-19))
 1189 0394 8330      		cpi r24,lo8(3)
 1190 0396 00F0      		brlo .L76
 477:/Users/davide/Documents/NQM_WORK/MinimizedBoard/Attiny48/i2ctest/CC1101/CC1101/cc1101q1.c ****         flushTxFifo();        // Flush Tx FIFO
 1192               	.LM169:
 1193 0398 86E3      		ldi r24,lo8(54)
 1194 039a 00D0      		rcall cmdStrobe
 478:/Users/davide/Documents/NQM_WORK/MinimizedBoard/Attiny48/i2ctest/CC1101/CC1101/cc1101q1.c ****         setRxState();         // Back to RX state
 1196               	.LM170:
 1197 039c 8BE3      		ldi r24,lo8(59)
 1198 039e 00D0      		rcall cmdStrobe
 479:/Users/davide/Documents/NQM_WORK/MinimizedBoard/Attiny48/i2ctest/CC1101/CC1101/cc1101q1.c ****         
 1200               	.LM171:
 1201 03a0 84E3      		ldi r24,lo8(52)
 1202 03a2 00D0      		rcall cmdStrobe
 482:/Users/davide/Documents/NQM_WORK/MinimizedBoard/Attiny48/i2ctest/CC1101/CC1101/cc1101q1.c ****         return false;
 1204               	.LM172:
 1205 03a4 81E0      		ldi r24,lo8(1)
 1206 03a6 8093 0000 		sts rfState,r24
 483:/Users/davide/Documents/NQM_WORK/MinimizedBoard/Attiny48/i2ctest/CC1101/CC1101/cc1101q1.c ****     }
 1208               	.LM173:
 1209 03aa 10E0      		ldi r17,0
 1210 03ac 00C0      		rjmp .L67
 1211               	.L76:
 487:/Users/davide/Documents/NQM_WORK/MinimizedBoard/Attiny48/i2ctest/CC1101/CC1101/cc1101q1.c ****     
 1213               	.LM174:
 1214 03ae 4D9B      		sbis 0x9,5
 1215 03b0 00C0      		rjmp .L76
 1216               	.L73:
 490:/Users/davide/Documents/NQM_WORK/MinimizedBoard/Attiny48/i2ctest/CC1101/CC1101/cc1101q1.c **** //
 1218               	.LM175:
 1219 03b2 4D99      		sbic 0x9,5
 1220 03b4 00C0      		rjmp .L73
 493:/Users/davide/Documents/NQM_WORK/MinimizedBoard/Attiny48/i2ctest/CC1101/CC1101/cc1101q1.c ****         res = true;
 1222               	.LM176:
 1223 03b6 60EC      		ldi r22,lo8(-64)
 1224 03b8 8AE3      		ldi r24,lo8(58)
 1225 03ba 00D0      		rcall readReg
 1226 03bc 8F77      		andi r24,lo8(127)
 1227 03be 11E0      		ldi r17,lo8(1)
 1228 03c0 01F0      		breq .L69
 1229 03c2 10E0      		ldi r17,0
 1230               	.L69:
 496:/Users/davide/Documents/NQM_WORK/MinimizedBoard/Attiny48/i2ctest/CC1101/CC1101/cc1101q1.c ****     _delay_ms(2000);
 1232               	.LM177:
 1233 03c4 86E3      		ldi r24,lo8(54)
 1234 03c6 00D0      		rcall cmdStrobe
 1235               	.LBB32:
 1236               	.LBB33:
 1238               	.Ltext3:
 1240               	.LM178:
 1241 03c8 FFEF      		ldi r31,lo8(1599999)
 1242 03ca 29E6      		ldi r18,hi8(1599999)
 1243 03cc 88E1      		ldi r24,hlo8(1599999)
 1244 03ce F150      		1: subi r31,1
 1245 03d0 2040      		sbci r18,0
 1246 03d2 8040      		sbci r24,0
 1247 03d4 01F4      		brne 1b
 1248 03d6 00C0      		rjmp .
 1249 03d8 0000      		nop
 1250               	.LBE33:
 1251               	.LBE32:
 1253               	.Ltext4:
 498:/Users/davide/Documents/NQM_WORK/MinimizedBoard/Attiny48/i2ctest/CC1101/CC1101/cc1101q1.c ****     
 1255               	.LM179:
 1256 03da 8BE3      		ldi r24,lo8(59)
 1257 03dc 00D0      		rcall cmdStrobe
 501:/Users/davide/Documents/NQM_WORK/MinimizedBoard/Attiny48/i2ctest/CC1101/CC1101/cc1101q1.c ****     
 1259               	.LM180:
 1260 03de 84E3      		ldi r24,lo8(52)
 1261 03e0 00D0      		rcall cmdStrobe
 504:/Users/davide/Documents/NQM_WORK/MinimizedBoard/Attiny48/i2ctest/CC1101/CC1101/cc1101q1.c **** //
 1263               	.LM181:
 1264 03e2 81E0      		ldi r24,lo8(1)
 1265 03e4 8093 0000 		sts rfState,r24
 1266               	.L67:
 507:/Users/davide/Documents/NQM_WORK/MinimizedBoard/Attiny48/i2ctest/CC1101/CC1101/cc1101q1.c **** 
 1268               	.LM182:
 1269 03e8 812F      		mov r24,r17
 1270               	/* epilogue start */
 1271 03ea DF91      		pop r29
 1272 03ec CF91      		pop r28
 1273 03ee 1F91      		pop r17
 1274 03f0 0F91      		pop r16
 1275 03f2 0895      		ret
 1277               	.Lscope17:
 1281               	.global	readBurstReg
 1283               	readBurstReg:
 162:/Users/davide/Documents/NQM_WORK/MinimizedBoard/Attiny48/i2ctest/CC1101/CC1101/cc1101q1.c ****     byte addr, i;
 1285               	.LM183:
 1286               	.LFBB18:
 1287 03f4 CF92      		push r12
 1288 03f6 DF92      		push r13
 1289 03f8 FF92      		push r15
 1290 03fa 0F93      		push r16
 1291 03fc 1F93      		push r17
 1292 03fe CF93      		push r28
 1293 0400 DF93      		push r29
 1294 0402 1F92      		push __zero_reg__
 1295 0404 CDB7      		in r28,__SP_L__
 1296 0406 DEB7      		in r29,__SP_H__
 1297               	/* prologue: function */
 1298               	/* frame size = 1 */
 1299               	/* stack size = 8 */
 1300               	.L__stack_usage = 8
 1301 0408 182F      		mov r17,r24
 1302 040a 042F      		mov r16,r20
 165:/Users/davide/Documents/NQM_WORK/MinimizedBoard/Attiny48/i2ctest/CC1101/CC1101/cc1101q1.c ****     cc1101_Select();                      // Select CC1101
 1304               	.LM184:
 1305 040c 862F      		mov r24,r22
 1306 040e 806C      		ori r24,lo8(-64)
 166:/Users/davide/Documents/NQM_WORK/MinimizedBoard/Attiny48/i2ctest/CC1101/CC1101/cc1101q1.c ****     wait_Miso();                          // Wait until MISO goes low
 1308               	.LM185:
 1309 0410 2A98      		cbi 0x5,2
 1310               	.L82:
 167:/Users/davide/Documents/NQM_WORK/MinimizedBoard/Attiny48/i2ctest/CC1101/CC1101/cc1101q1.c ****     spisend(addr);                       // Send register address
 1312               	.LM186:
 1313 0412 1C99      		sbic 0x3,4
 1314 0414 00C0      		rjmp .L82
 168:/Users/davide/Documents/NQM_WORK/MinimizedBoard/Attiny48/i2ctest/CC1101/CC1101/cc1101q1.c ****     for(i=0 ; i<len ; i++)
 1316               	.LM187:
 1317 0416 9983      		std Y+1,r25
 1318 0418 00D0      		rcall spisend
 1319 041a F12E      		mov r15,r17
 169:/Users/davide/Documents/NQM_WORK/MinimizedBoard/Attiny48/i2ctest/CC1101/CC1101/cc1101q1.c ****         buffer[i] = spisend(0x00);         // Read result byte by byte
 1321               	.LM188:
 1322 041c C12E      		mov r12,r17
 1323 041e 9981      		ldd r25,Y+1
 1324 0420 D92E      		mov r13,r25
 1325               	.L83:
 1326 0422 8C2D      		mov r24,r12
 1327 0424 8F19      		sub r24,r15
 169:/Users/davide/Documents/NQM_WORK/MinimizedBoard/Attiny48/i2ctest/CC1101/CC1101/cc1101q1.c ****         buffer[i] = spisend(0x00);         // Read result byte by byte
 1329               	.LM189:
 1330 0426 8017      		cp r24,r16
 1331 0428 00F4      		brsh .L86
 170:/Users/davide/Documents/NQM_WORK/MinimizedBoard/Attiny48/i2ctest/CC1101/CC1101/cc1101q1.c ****     cc1101_Deselect();                    // Deselect CC1101
 1333               	.LM190:
 1334 042a 80E0      		ldi r24,0
 1335 042c 00D0      		rcall spisend
 1336 042e F601      		movw r30,r12
 1337 0430 8193      		st Z+,r24
 1338 0432 6F01      		movw r12,r30
 1339 0434 00C0      		rjmp .L83
 1340               	.L86:
 171:/Users/davide/Documents/NQM_WORK/MinimizedBoard/Attiny48/i2ctest/CC1101/CC1101/cc1101q1.c **** }
 1342               	.LM191:
 1343 0436 2A9A      		sbi 0x5,2
 1344               	/* epilogue start */
 172:/Users/davide/Documents/NQM_WORK/MinimizedBoard/Attiny48/i2ctest/CC1101/CC1101/cc1101q1.c **** 
 1346               	.LM192:
 1347 0438 0F90      		pop __tmp_reg__
 1348 043a DF91      		pop r29
 1349 043c CF91      		pop r28
 1350 043e 1F91      		pop r17
 1351 0440 0F91      		pop r16
 1352 0442 FF90      		pop r15
 1353 0444 DF90      		pop r13
 1354 0446 CF90      		pop r12
 1355 0448 0895      		ret
 1360               	.Lscope18:
 1363               	.global	receiveData
 1365               	receiveData:
 520:/Users/davide/Documents/NQM_WORK/MinimizedBoard/Attiny48/i2ctest/CC1101/CC1101/cc1101q1.c ****     byte val;
 1367               	.LM193:
 1368               	.LFBB19:
 1369 044a CF93      		push r28
 1370 044c DF93      		push r29
 1371               	/* prologue: function */
 1372               	/* frame size = 0 */
 1373               	/* stack size = 2 */
 1374               	.L__stack_usage = 2
 1375 044e EC01      		movw r28,r24
 522:/Users/davide/Documents/NQM_WORK/MinimizedBoard/Attiny48/i2ctest/CC1101/CC1101/cc1101q1.c ****     
 1377               	.LM194:
 1378 0450 60EC      		ldi r22,lo8(-64)
 1379 0452 8BE3      		ldi r24,lo8(59)
 1380 0454 00D0      		rcall readReg
 525:/Users/davide/Documents/NQM_WORK/MinimizedBoard/Attiny48/i2ctest/CC1101/CC1101/cc1101q1.c ****     {
 1382               	.LM195:
 1383 0456 60EC      		ldi r22,lo8(-64)
 1384 0458 85E3      		ldi r24,lo8(53)
 1385 045a 00D0      		rcall readReg
 1386 045c 8F71      		andi r24,lo8(31)
 1387 045e 8131      		cpi r24,lo8(17)
 1388 0460 01F4      		brne .L88
 528:/Users/davide/Documents/NQM_WORK/MinimizedBoard/Attiny48/i2ctest/CC1101/CC1101/cc1101q1.c ****         packet->length = 0;
 1390               	.LM196:
 1391 0462 8AE3      		ldi r24,lo8(58)
 1392 0464 00D0      		rcall cmdStrobe
 1393 0466 00C0      		rjmp .L90
 1394               	.L88:
 532:/Users/davide/Documents/NQM_WORK/MinimizedBoard/Attiny48/i2ctest/CC1101/CC1101/cc1101q1.c ****     {
 1396               	.LM197:
 1397 0468 60EC      		ldi r22,lo8(-64)
 1398 046a 8BE3      		ldi r24,lo8(59)
 1399 046c 00D0      		rcall readReg
 1400 046e 8F77      		andi r24,lo8(127)
 1401 0470 01F0      		breq .L90
 535:/Users/davide/Documents/NQM_WORK/MinimizedBoard/Attiny48/i2ctest/CC1101/CC1101/cc1101q1.c ****         // If packet is too long
 1403               	.LM198:
 1404 0472 60E8      		ldi r22,lo8(-128)
 1405 0474 8FE3      		ldi r24,lo8(63)
 1406 0476 00D0      		rcall readReg
 1407 0478 8883      		st Y,r24
 537:/Users/davide/Documents/NQM_WORK/MinimizedBoard/Attiny48/i2ctest/CC1101/CC1101/cc1101q1.c ****             packet->length = 0;   // Discard packet
 1409               	.LM199:
 1410 047a 8E33      		cpi r24,lo8(62)
 1411 047c 00F0      		brlo .L91
 1412               	.L90:
 538:/Users/davide/Documents/NQM_WORK/MinimizedBoard/Attiny48/i2ctest/CC1101/CC1101/cc1101q1.c ****         else
 1414               	.LM200:
 1415 047e 1882      		st Y,__zero_reg__
 1416 0480 00C0      		rjmp .L89
 1417               	.L91:
 542:/Users/davide/Documents/NQM_WORK/MinimizedBoard/Attiny48/i2ctest/CC1101/CC1101/cc1101q1.c ****             // Read RSSI
 1419               	.LM201:
 1420 0482 482F      		mov r20,r24
 1421 0484 6FE3      		ldi r22,lo8(63)
 1422 0486 CE01      		movw r24,r28
 1423 0488 0196      		adiw r24,1
 1424 048a 00D0      		rcall readBurstReg
 544:/Users/davide/Documents/NQM_WORK/MinimizedBoard/Attiny48/i2ctest/CC1101/CC1101/cc1101q1.c ****             // Read LQI and CRC_OK
 1426               	.LM202:
 1427 048c 60E8      		ldi r22,lo8(-128)
 1428 048e 8FE3      		ldi r24,lo8(63)
 1429 0490 00D0      		rcall readReg
 1430 0492 8FAF      		std Y+63,r24
 546:/Users/davide/Documents/NQM_WORK/MinimizedBoard/Attiny48/i2ctest/CC1101/CC1101/cc1101q1.c ****             packet->lqi = val & 0x7F;
 1432               	.LM203:
 1433 0494 60E8      		ldi r22,lo8(-128)
 1434 0496 8FE3      		ldi r24,lo8(63)
 1435 0498 00D0      		rcall readReg
 547:/Users/davide/Documents/NQM_WORK/MinimizedBoard/Attiny48/i2ctest/CC1101/CC1101/cc1101q1.c ****             packet->crc_ok = bitRead(val, 7);
 1437               	.LM204:
 1438 049a FE01      		movw r30,r28
 1439 049c E05C      		subi r30,-64
 1440 049e FF4F      		sbci r31,-1
 1441 04a0 982F      		mov r25,r24
 1442 04a2 9F77      		andi r25,lo8(127)
 1443 04a4 9083      		st Z,r25
 548:/Users/davide/Documents/NQM_WORK/MinimizedBoard/Attiny48/i2ctest/CC1101/CC1101/cc1101q1.c ****         }
 1445               	.LM205:
 1446 04a6 982F      		mov r25,r24
 1447 04a8 991F      		rol r25
 1448 04aa 9927      		clr r25
 1449 04ac 991F      		rol r25
 1450 04ae 9EAF      		std Y+62,r25
 1451               	.L89:
 558:/Users/davide/Documents/NQM_WORK/MinimizedBoard/Attiny48/i2ctest/CC1101/CC1101/cc1101q1.c ****     
 1453               	.LM206:
 1454 04b0 84E3      		ldi r24,lo8(52)
 1455 04b2 00D0      		rcall cmdStrobe
 570:/Users/davide/Documents/NQM_WORK/MinimizedBoard/Attiny48/i2ctest/CC1101/CC1101/cc1101q1.c **** 
 1457               	.LM207:
 1458 04b4 8881      		ld r24,Y
 1459               	/* epilogue start */
 1460 04b6 DF91      		pop r29
 1461 04b8 CF91      		pop r28
 1462 04ba 0895      		ret
 1467               	.Lscope19:
 1469               	.global	reset
 1471               	reset:
 180:/Users/davide/Documents/NQM_WORK/MinimizedBoard/Attiny48/i2ctest/CC1101/CC1101/cc1101q1.c ****     cc1101_Deselect();                    // Deselect CC1101
 1473               	.LM208:
 1474               	.LFBB20:
 1475               	/* prologue: function */
 1476               	/* frame size = 0 */
 1477               	/* stack size = 0 */
 1478               	.L__stack_usage = 0
 181:/Users/davide/Documents/NQM_WORK/MinimizedBoard/Attiny48/i2ctest/CC1101/CC1101/cc1101q1.c ****     _delay_ms(5);
 1480               	.LM209:
 1481 04bc 2A9A      		sbi 0x5,2
 1482               	.LBB34:
 1483               	.LBB35:
 1485               	.Ltext5:
 1487               	.LM210:
 1488 04be 87E8      		ldi r24,lo8(4999)
 1489 04c0 93E1      		ldi r25,hi8(4999)
 1490 04c2 0197      		1: sbiw r24,1
 1491 04c4 01F4      		brne 1b
 1492 04c6 00C0      		rjmp .
 1493 04c8 0000      		nop
 1494               	.LBE35:
 1495               	.LBE34:
 1497               	.Ltext6:
 183:/Users/davide/Documents/NQM_WORK/MinimizedBoard/Attiny48/i2ctest/CC1101/CC1101/cc1101q1.c ****     _delay_ms(10);
 1499               	.LM211:
 1500 04ca 2A98      		cbi 0x5,2
 1501               	.LBB36:
 1502               	.LBB37:
 1504               	.Ltext7:
 1506               	.LM212:
 1507 04cc 8FE0      		ldi r24,lo8(9999)
 1508 04ce 97E2      		ldi r25,hi8(9999)
 1509 04d0 0197      		1: sbiw r24,1
 1510 04d2 01F4      		brne 1b
 1511 04d4 00C0      		rjmp .
 1512 04d6 0000      		nop
 1513               	.LBE37:
 1514               	.LBE36:
 1516               	.Ltext8:
 185:/Users/davide/Documents/NQM_WORK/MinimizedBoard/Attiny48/i2ctest/CC1101/CC1101/cc1101q1.c ****     _delay_ms(41);
 1518               	.LM213:
 1519 04d8 2A9A      		sbi 0x5,2
 1520               	.LBB38:
 1521               	.LBB39:
 1523               	.Ltext9:
 1525               	.LM214:
 1526 04da 87E2      		ldi r24,lo8(-24537)
 1527 04dc 90EA      		ldi r25,hi8(-24537)
 1528 04de 0197      		1: sbiw r24,1
 1529 04e0 01F4      		brne 1b
 1530 04e2 00C0      		rjmp .
 1531 04e4 0000      		nop
 1532               	.LBE39:
 1533               	.LBE38:
 1535               	.Ltext10:
 187:/Users/davide/Documents/NQM_WORK/MinimizedBoard/Attiny48/i2ctest/CC1101/CC1101/cc1101q1.c ****     
 1537               	.LM215:
 1538 04e6 2A98      		cbi 0x5,2
 1539               	.L97:
 189:/Users/davide/Documents/NQM_WORK/MinimizedBoard/Attiny48/i2ctest/CC1101/CC1101/cc1101q1.c ****     spisend(CC1101_SRES);                // Send reset command strobe
 1541               	.LM216:
 1542 04e8 1C99      		sbic 0x3,4
 1543 04ea 00C0      		rjmp .L97
 190:/Users/davide/Documents/NQM_WORK/MinimizedBoard/Attiny48/i2ctest/CC1101/CC1101/cc1101q1.c ****     wait_Miso();                          // Wait until MISO goes low
 1545               	.LM217:
 1546 04ec 80E3      		ldi r24,lo8(48)
 1547 04ee 00D0      		rcall spisend
 1548               	.L98:
 191:/Users/davide/Documents/NQM_WORK/MinimizedBoard/Attiny48/i2ctest/CC1101/CC1101/cc1101q1.c ****     
 1550               	.LM218:
 1551 04f0 1C99      		sbic 0x3,4
 1552 04f2 00C0      		rjmp .L98
 193:/Users/davide/Documents/NQM_WORK/MinimizedBoard/Attiny48/i2ctest/CC1101/CC1101/cc1101q1.c ****     
 1554               	.LM219:
 1555 04f4 2A9A      		sbi 0x5,2
 195:/Users/davide/Documents/NQM_WORK/MinimizedBoard/Attiny48/i2ctest/CC1101/CC1101/cc1101q1.c ****     setRegsFromEeprom();                  // Take user settings from EEPROM
 1557               	.LM220:
 1558 04f6 00D0      		rcall setDefaultRegs
 196:/Users/davide/Documents/NQM_WORK/MinimizedBoard/Attiny48/i2ctest/CC1101/CC1101/cc1101q1.c **** }
 1560               	.LM221:
 1561 04f8 00C0      		rjmp setRegsFromEeprom
 1563               	.Lscope20:
 1565               	.global	init
 1567               	init:
 267:/Users/davide/Documents/NQM_WORK/MinimizedBoard/Attiny48/i2ctest/CC1101/CC1101/cc1101q1.c ****     spiinit();                           // Initialize SPI interface
 1569               	.LM222:
 1570               	.LFBB21:
 1571               	/* prologue: function */
 1572               	/* frame size = 0 */
 1573               	/* stack size = 0 */
 1574               	.L__stack_usage = 0
 268:/Users/davide/Documents/NQM_WORK/MinimizedBoard/Attiny48/i2ctest/CC1101/CC1101/cc1101q1.c ****     //spi.setClockDivider(SPI_CLOCK_DIV16);
 1576               	.LM223:
 1577 04fa 00D0      		rcall spiinit
 272:/Users/davide/Documents/NQM_WORK/MinimizedBoard/Attiny48/i2ctest/CC1101/CC1101/cc1101q1.c ****     
 1579               	.LM224:
 1580 04fc 1AB8      		out 0xa,__zero_reg__
 274:/Users/davide/Documents/NQM_WORK/MinimizedBoard/Attiny48/i2ctest/CC1101/CC1101/cc1101q1.c ****     
 1582               	.LM225:
 1583 04fe 00D0      		rcall reset
 278:/Users/davide/Documents/NQM_WORK/MinimizedBoard/Attiny48/i2ctest/CC1101/CC1101/cc1101q1.c **** }
 1585               	.LM226:
 1586 0500 6091 0000 		lds r22,paTableByte
 1587 0504 8EE3      		ldi r24,lo8(62)
 1588 0506 00C0      		rjmp writeReg
 1590               	.Lscope21:
 1592               	.global	spiread
 1594               	spiread:
 600:/Users/davide/Documents/NQM_WORK/MinimizedBoard/Attiny48/i2ctest/CC1101/CC1101/cc1101q1.c **** byte spiread(void)
 601:/Users/davide/Documents/NQM_WORK/MinimizedBoard/Attiny48/i2ctest/CC1101/CC1101/cc1101q1.c **** {
 1596               	.LM227:
 1597               	.LFBB22:
 1598               	/* prologue: function */
 1599               	/* frame size = 0 */
 1600               	/* stack size = 0 */
 1601               	.L__stack_usage = 0
 1602               	.L103:
 602:/Users/davide/Documents/NQM_WORK/MinimizedBoard/Attiny48/i2ctest/CC1101/CC1101/cc1101q1.c ****     byte data;
 603:/Users/davide/Documents/NQM_WORK/MinimizedBoard/Attiny48/i2ctest/CC1101/CC1101/cc1101q1.c ****     wait_Spi();
 1604               	.LM228:
 1605 0508 0DB4      		in __tmp_reg__,0x2d
 1606 050a 07FE      		sbrs __tmp_reg__,7
 1607 050c 00C0      		rjmp .L103
 604:/Users/davide/Documents/NQM_WORK/MinimizedBoard/Attiny48/i2ctest/CC1101/CC1101/cc1101q1.c ****     data = SPDR;
 1609               	.LM229:
 1610 050e 8EB5      		in r24,0x2e
 605:/Users/davide/Documents/NQM_WORK/MinimizedBoard/Attiny48/i2ctest/CC1101/CC1101/cc1101q1.c ****     return data;
 606:/Users/davide/Documents/NQM_WORK/MinimizedBoard/Attiny48/i2ctest/CC1101/CC1101/cc1101q1.c **** }
 1612               	.LM230:
 1613 0510 0895      		ret
 1618               	.Lscope22:
 1623               	.global	attachInterrupt
 1625               	attachInterrupt:
 607:/Users/davide/Documents/NQM_WORK/MinimizedBoard/Attiny48/i2ctest/CC1101/CC1101/cc1101q1.c **** 
 608:/Users/davide/Documents/NQM_WORK/MinimizedBoard/Attiny48/i2ctest/CC1101/CC1101/cc1101q1.c **** 
 609:/Users/davide/Documents/NQM_WORK/MinimizedBoard/Attiny48/i2ctest/CC1101/CC1101/cc1101q1.c **** //attachinterrupts
 610:/Users/davide/Documents/NQM_WORK/MinimizedBoard/Attiny48/i2ctest/CC1101/CC1101/cc1101q1.c **** void attachInterrupt(uint8_t interruptNum, void (*userFunc)(void), int mode) {
 1627               	.LM231:
 1628               	.LFBB23:
 1629               	/* prologue: function */
 1630               	/* frame size = 0 */
 1631               	/* stack size = 0 */
 1632               	.L__stack_usage = 0
 611:/Users/davide/Documents/NQM_WORK/MinimizedBoard/Attiny48/i2ctest/CC1101/CC1101/cc1101q1.c ****     if(interruptNum < EXTERNAL_NUM_INTERRUPTS) {
 1634               	.LM232:
 1635 0512 8230      		cpi r24,lo8(2)
 1636 0514 00F4      		brsh .L105
 612:/Users/davide/Documents/NQM_WORK/MinimizedBoard/Attiny48/i2ctest/CC1101/CC1101/cc1101q1.c ****         intFunc[interruptNum] = userFunc;
 1638               	.LM233:
 1639 0516 E82F      		mov r30,r24
 1640 0518 F0E0      		ldi r31,0
 1641 051a EE0F      		lsl r30
 1642 051c FF1F      		rol r31
 1643 051e E050      		subi r30,lo8(-(intFunc))
 1644 0520 F040      		sbci r31,hi8(-(intFunc))
 1645 0522 7183      		std Z+1,r23
 1646 0524 6083      		st Z,r22
 613:/Users/davide/Documents/NQM_WORK/MinimizedBoard/Attiny48/i2ctest/CC1101/CC1101/cc1101q1.c ****         
 614:/Users/davide/Documents/NQM_WORK/MinimizedBoard/Attiny48/i2ctest/CC1101/CC1101/cc1101q1.c ****         // Configure the interrupt mode (trigger on low input, any change, rising
 615:/Users/davide/Documents/NQM_WORK/MinimizedBoard/Attiny48/i2ctest/CC1101/CC1101/cc1101q1.c ****         // edge, or falling edge).  The mode constants were chosen to correspond
 616:/Users/davide/Documents/NQM_WORK/MinimizedBoard/Attiny48/i2ctest/CC1101/CC1101/cc1101q1.c ****         // to the configuration bits in the hardware register, so we simply shift
 617:/Users/davide/Documents/NQM_WORK/MinimizedBoard/Attiny48/i2ctest/CC1101/CC1101/cc1101q1.c ****         // the mode into place.
 618:/Users/davide/Documents/NQM_WORK/MinimizedBoard/Attiny48/i2ctest/CC1101/CC1101/cc1101q1.c ****         
 619:/Users/davide/Documents/NQM_WORK/MinimizedBoard/Attiny48/i2ctest/CC1101/CC1101/cc1101q1.c ****         // Enable the interrupt.
 620:/Users/davide/Documents/NQM_WORK/MinimizedBoard/Attiny48/i2ctest/CC1101/CC1101/cc1101q1.c ****         
 621:/Users/davide/Documents/NQM_WORK/MinimizedBoard/Attiny48/i2ctest/CC1101/CC1101/cc1101q1.c ****         switch (interruptNum) {
 1648               	.LM234:
 1649 0526 8130      		cpi r24,lo8(1)
 1650 0528 01F0      		breq .L108
 622:/Users/davide/Documents/NQM_WORK/MinimizedBoard/Attiny48/i2ctest/CC1101/CC1101/cc1101q1.c **** #if defined(__AVR_ATmega32U4__)
 623:/Users/davide/Documents/NQM_WORK/MinimizedBoard/Attiny48/i2ctest/CC1101/CC1101/cc1101q1.c ****                 // I hate doing this, but the register assignment differs between the 1280/2560
 624:/Users/davide/Documents/NQM_WORK/MinimizedBoard/Attiny48/i2ctest/CC1101/CC1101/cc1101q1.c ****                 // and the 32U4.  Since avrlib defines registers PCMSK1 and PCMSK2 that aren't
 625:/Users/davide/Documents/NQM_WORK/MinimizedBoard/Attiny48/i2ctest/CC1101/CC1101/cc1101q1.c ****                 // even present on the 32U4 this is the only way to distinguish between them.
 626:/Users/davide/Documents/NQM_WORK/MinimizedBoard/Attiny48/i2ctest/CC1101/CC1101/cc1101q1.c ****             case 0:
 627:/Users/davide/Documents/NQM_WORK/MinimizedBoard/Attiny48/i2ctest/CC1101/CC1101/cc1101q1.c ****                 EICRA = (EICRA & ~((1<<ISC00) | (1<<ISC01))) | (mode << ISC00);
 628:/Users/davide/Documents/NQM_WORK/MinimizedBoard/Attiny48/i2ctest/CC1101/CC1101/cc1101q1.c ****                 EIMSK |= (1<<INT0);
 629:/Users/davide/Documents/NQM_WORK/MinimizedBoard/Attiny48/i2ctest/CC1101/CC1101/cc1101q1.c ****                 break;
 630:/Users/davide/Documents/NQM_WORK/MinimizedBoard/Attiny48/i2ctest/CC1101/CC1101/cc1101q1.c ****             case 1:
 631:/Users/davide/Documents/NQM_WORK/MinimizedBoard/Attiny48/i2ctest/CC1101/CC1101/cc1101q1.c ****                 EICRA = (EICRA & ~((1<<ISC10) | (1<<ISC11))) | (mode << ISC10);
 632:/Users/davide/Documents/NQM_WORK/MinimizedBoard/Attiny48/i2ctest/CC1101/CC1101/cc1101q1.c ****                 EIMSK |= (1<<INT1);
 633:/Users/davide/Documents/NQM_WORK/MinimizedBoard/Attiny48/i2ctest/CC1101/CC1101/cc1101q1.c ****                 break;
 634:/Users/davide/Documents/NQM_WORK/MinimizedBoard/Attiny48/i2ctest/CC1101/CC1101/cc1101q1.c ****             case 2:
 635:/Users/davide/Documents/NQM_WORK/MinimizedBoard/Attiny48/i2ctest/CC1101/CC1101/cc1101q1.c ****                 EICRA = (EICRA & ~((1<<ISC20) | (1<<ISC21))) | (mode << ISC20);
 636:/Users/davide/Documents/NQM_WORK/MinimizedBoard/Attiny48/i2ctest/CC1101/CC1101/cc1101q1.c ****                 EIMSK |= (1<<INT2);
 637:/Users/davide/Documents/NQM_WORK/MinimizedBoard/Attiny48/i2ctest/CC1101/CC1101/cc1101q1.c ****                 break;
 638:/Users/davide/Documents/NQM_WORK/MinimizedBoard/Attiny48/i2ctest/CC1101/CC1101/cc1101q1.c ****             case 3:
 639:/Users/davide/Documents/NQM_WORK/MinimizedBoard/Attiny48/i2ctest/CC1101/CC1101/cc1101q1.c ****                 EICRA = (EICRA & ~((1<<ISC30) | (1<<ISC31))) | (mode << ISC30);
 640:/Users/davide/Documents/NQM_WORK/MinimizedBoard/Attiny48/i2ctest/CC1101/CC1101/cc1101q1.c ****                 EIMSK |= (1<<INT3);
 641:/Users/davide/Documents/NQM_WORK/MinimizedBoard/Attiny48/i2ctest/CC1101/CC1101/cc1101q1.c ****                 break;
 642:/Users/davide/Documents/NQM_WORK/MinimizedBoard/Attiny48/i2ctest/CC1101/CC1101/cc1101q1.c ****             case 4:
 643:/Users/davide/Documents/NQM_WORK/MinimizedBoard/Attiny48/i2ctest/CC1101/CC1101/cc1101q1.c ****                 EICRB = (EICRB & ~((1<<ISC60) | (1<<ISC61))) | (mode << ISC60);
 644:/Users/davide/Documents/NQM_WORK/MinimizedBoard/Attiny48/i2ctest/CC1101/CC1101/cc1101q1.c ****                 EIMSK |= (1<<INT6);
 645:/Users/davide/Documents/NQM_WORK/MinimizedBoard/Attiny48/i2ctest/CC1101/CC1101/cc1101q1.c ****                 break;
 646:/Users/davide/Documents/NQM_WORK/MinimizedBoard/Attiny48/i2ctest/CC1101/CC1101/cc1101q1.c **** #elif defined(EICRA) && defined(EICRB) && defined(EIMSK)
 647:/Users/davide/Documents/NQM_WORK/MinimizedBoard/Attiny48/i2ctest/CC1101/CC1101/cc1101q1.c ****             case 2:
 648:/Users/davide/Documents/NQM_WORK/MinimizedBoard/Attiny48/i2ctest/CC1101/CC1101/cc1101q1.c ****                 EICRA = (EICRA & ~((1 << ISC00) | (1 << ISC01))) | (mode << ISC00);
 649:/Users/davide/Documents/NQM_WORK/MinimizedBoard/Attiny48/i2ctest/CC1101/CC1101/cc1101q1.c ****                 EIMSK |= (1 << INT0);
 650:/Users/davide/Documents/NQM_WORK/MinimizedBoard/Attiny48/i2ctest/CC1101/CC1101/cc1101q1.c ****                 break;
 651:/Users/davide/Documents/NQM_WORK/MinimizedBoard/Attiny48/i2ctest/CC1101/CC1101/cc1101q1.c ****             case 3:
 652:/Users/davide/Documents/NQM_WORK/MinimizedBoard/Attiny48/i2ctest/CC1101/CC1101/cc1101q1.c ****                 EICRA = (EICRA & ~((1 << ISC10) | (1 << ISC11))) | (mode << ISC10);
 653:/Users/davide/Documents/NQM_WORK/MinimizedBoard/Attiny48/i2ctest/CC1101/CC1101/cc1101q1.c ****                 EIMSK |= (1 << INT1);
 654:/Users/davide/Documents/NQM_WORK/MinimizedBoard/Attiny48/i2ctest/CC1101/CC1101/cc1101q1.c ****                 break;
 655:/Users/davide/Documents/NQM_WORK/MinimizedBoard/Attiny48/i2ctest/CC1101/CC1101/cc1101q1.c ****             case 4:
 656:/Users/davide/Documents/NQM_WORK/MinimizedBoard/Attiny48/i2ctest/CC1101/CC1101/cc1101q1.c ****                 EICRA = (EICRA & ~((1 << ISC20) | (1 << ISC21))) | (mode << ISC20);
 657:/Users/davide/Documents/NQM_WORK/MinimizedBoard/Attiny48/i2ctest/CC1101/CC1101/cc1101q1.c ****                 EIMSK |= (1 << INT2);
 658:/Users/davide/Documents/NQM_WORK/MinimizedBoard/Attiny48/i2ctest/CC1101/CC1101/cc1101q1.c ****                 break;
 659:/Users/davide/Documents/NQM_WORK/MinimizedBoard/Attiny48/i2ctest/CC1101/CC1101/cc1101q1.c ****             case 5:
 660:/Users/davide/Documents/NQM_WORK/MinimizedBoard/Attiny48/i2ctest/CC1101/CC1101/cc1101q1.c ****                 EICRA = (EICRA & ~((1 << ISC30) | (1 << ISC31))) | (mode << ISC30);
 661:/Users/davide/Documents/NQM_WORK/MinimizedBoard/Attiny48/i2ctest/CC1101/CC1101/cc1101q1.c ****                 EIMSK |= (1 << INT3);
 662:/Users/davide/Documents/NQM_WORK/MinimizedBoard/Attiny48/i2ctest/CC1101/CC1101/cc1101q1.c ****                 break;
 663:/Users/davide/Documents/NQM_WORK/MinimizedBoard/Attiny48/i2ctest/CC1101/CC1101/cc1101q1.c ****             case 0:
 664:/Users/davide/Documents/NQM_WORK/MinimizedBoard/Attiny48/i2ctest/CC1101/CC1101/cc1101q1.c ****                 EICRB = (EICRB & ~((1 << ISC40) | (1 << ISC41))) | (mode << ISC40);
 665:/Users/davide/Documents/NQM_WORK/MinimizedBoard/Attiny48/i2ctest/CC1101/CC1101/cc1101q1.c ****                 EIMSK |= (1 << INT4);
 666:/Users/davide/Documents/NQM_WORK/MinimizedBoard/Attiny48/i2ctest/CC1101/CC1101/cc1101q1.c ****                 break;
 667:/Users/davide/Documents/NQM_WORK/MinimizedBoard/Attiny48/i2ctest/CC1101/CC1101/cc1101q1.c ****             case 1:
 668:/Users/davide/Documents/NQM_WORK/MinimizedBoard/Attiny48/i2ctest/CC1101/CC1101/cc1101q1.c ****                 EICRB = (EICRB & ~((1 << ISC50) | (1 << ISC51))) | (mode << ISC50);
 669:/Users/davide/Documents/NQM_WORK/MinimizedBoard/Attiny48/i2ctest/CC1101/CC1101/cc1101q1.c ****                 EIMSK |= (1 << INT5);
 670:/Users/davide/Documents/NQM_WORK/MinimizedBoard/Attiny48/i2ctest/CC1101/CC1101/cc1101q1.c ****                 break;
 671:/Users/davide/Documents/NQM_WORK/MinimizedBoard/Attiny48/i2ctest/CC1101/CC1101/cc1101q1.c ****             case 6:
 672:/Users/davide/Documents/NQM_WORK/MinimizedBoard/Attiny48/i2ctest/CC1101/CC1101/cc1101q1.c ****                 EICRB = (EICRB & ~((1 << ISC60) | (1 << ISC61))) | (mode << ISC60);
 673:/Users/davide/Documents/NQM_WORK/MinimizedBoard/Attiny48/i2ctest/CC1101/CC1101/cc1101q1.c ****                 EIMSK |= (1 << INT6);
 674:/Users/davide/Documents/NQM_WORK/MinimizedBoard/Attiny48/i2ctest/CC1101/CC1101/cc1101q1.c ****                 break;
 675:/Users/davide/Documents/NQM_WORK/MinimizedBoard/Attiny48/i2ctest/CC1101/CC1101/cc1101q1.c ****             case 7:
 676:/Users/davide/Documents/NQM_WORK/MinimizedBoard/Attiny48/i2ctest/CC1101/CC1101/cc1101q1.c ****                 EICRB = (EICRB & ~((1 << ISC70) | (1 << ISC71))) | (mode << ISC70);
 677:/Users/davide/Documents/NQM_WORK/MinimizedBoard/Attiny48/i2ctest/CC1101/CC1101/cc1101q1.c ****                 EIMSK |= (1 << INT7);
 678:/Users/davide/Documents/NQM_WORK/MinimizedBoard/Attiny48/i2ctest/CC1101/CC1101/cc1101q1.c ****                 break;
 679:/Users/davide/Documents/NQM_WORK/MinimizedBoard/Attiny48/i2ctest/CC1101/CC1101/cc1101q1.c **** #else
 680:/Users/davide/Documents/NQM_WORK/MinimizedBoard/Attiny48/i2ctest/CC1101/CC1101/cc1101q1.c ****             case 0:
 681:/Users/davide/Documents/NQM_WORK/MinimizedBoard/Attiny48/i2ctest/CC1101/CC1101/cc1101q1.c **** #if defined(EICRA) && defined(ISC00) && defined(EIMSK)
 682:/Users/davide/Documents/NQM_WORK/MinimizedBoard/Attiny48/i2ctest/CC1101/CC1101/cc1101q1.c ****                 EICRA = (EICRA & ~((1 << ISC00) | (1 << ISC01))) | (mode << ISC00);
 1652               	.LM235:
 1653 052a 8091 6900 		lds r24,105
 1654 052e 8C7F      		andi r24,lo8(-4)
 1655 0530 482B      		or r20,r24
 1656 0532 4093 6900 		sts 105,r20
 683:/Users/davide/Documents/NQM_WORK/MinimizedBoard/Attiny48/i2ctest/CC1101/CC1101/cc1101q1.c ****                 EIMSK |= (1 << INT0);
 1658               	.LM236:
 1659 0536 E89A      		sbi 0x1d,0
 684:/Users/davide/Documents/NQM_WORK/MinimizedBoard/Attiny48/i2ctest/CC1101/CC1101/cc1101q1.c **** #elif defined(MCUCR) && defined(ISC00) && defined(GICR)
 685:/Users/davide/Documents/NQM_WORK/MinimizedBoard/Attiny48/i2ctest/CC1101/CC1101/cc1101q1.c ****                 MCUCR = (MCUCR & ~((1 << ISC00) | (1 << ISC01))) | (mode << ISC00);
 686:/Users/davide/Documents/NQM_WORK/MinimizedBoard/Attiny48/i2ctest/CC1101/CC1101/cc1101q1.c ****                 GICR |= (1 << INT0);
 687:/Users/davide/Documents/NQM_WORK/MinimizedBoard/Attiny48/i2ctest/CC1101/CC1101/cc1101q1.c **** #elif defined(MCUCR) && defined(ISC00) && defined(GIMSK)
 688:/Users/davide/Documents/NQM_WORK/MinimizedBoard/Attiny48/i2ctest/CC1101/CC1101/cc1101q1.c ****                 MCUCR = (MCUCR & ~((1 << ISC00) | (1 << ISC01))) | (mode << ISC00);
 689:/Users/davide/Documents/NQM_WORK/MinimizedBoard/Attiny48/i2ctest/CC1101/CC1101/cc1101q1.c ****                 GIMSK |= (1 << INT0);
 690:/Users/davide/Documents/NQM_WORK/MinimizedBoard/Attiny48/i2ctest/CC1101/CC1101/cc1101q1.c **** #else
 691:/Users/davide/Documents/NQM_WORK/MinimizedBoard/Attiny48/i2ctest/CC1101/CC1101/cc1101q1.c **** #error attachInterrupt not finished for this CPU (case 0)
 692:/Users/davide/Documents/NQM_WORK/MinimizedBoard/Attiny48/i2ctest/CC1101/CC1101/cc1101q1.c **** #endif
 693:/Users/davide/Documents/NQM_WORK/MinimizedBoard/Attiny48/i2ctest/CC1101/CC1101/cc1101q1.c ****                 break;
 1661               	.LM237:
 1662 0538 0895      		ret
 1663               	.L108:
 694:/Users/davide/Documents/NQM_WORK/MinimizedBoard/Attiny48/i2ctest/CC1101/CC1101/cc1101q1.c ****                 
 695:/Users/davide/Documents/NQM_WORK/MinimizedBoard/Attiny48/i2ctest/CC1101/CC1101/cc1101q1.c ****             case 1:
 696:/Users/davide/Documents/NQM_WORK/MinimizedBoard/Attiny48/i2ctest/CC1101/CC1101/cc1101q1.c **** #if defined(EICRA) && defined(ISC10) && defined(ISC11) && defined(EIMSK)
 697:/Users/davide/Documents/NQM_WORK/MinimizedBoard/Attiny48/i2ctest/CC1101/CC1101/cc1101q1.c ****                 EICRA = (EICRA & ~((1 << ISC10) | (1 << ISC11))) | (mode << ISC10);
 1665               	.LM238:
 1666 053a 8091 6900 		lds r24,105
 1667 053e 440F      		lsl r20
 1668 0540 551F      		rol r21
 1669 0542 440F      		lsl r20
 1670 0544 551F      		rol r21
 1671 0546 837F      		andi r24,lo8(-13)
 1672 0548 482B      		or r20,r24
 1673 054a 4093 6900 		sts 105,r20
 698:/Users/davide/Documents/NQM_WORK/MinimizedBoard/Attiny48/i2ctest/CC1101/CC1101/cc1101q1.c ****                 EIMSK |= (1 << INT1);
 1675               	.LM239:
 1676 054e E99A      		sbi 0x1d,1
 1677               	.L105:
 1678 0550 0895      		ret
 1680               	.Lscope23:
 1683               	.global	Enable_Interrupt
 1685               	Enable_Interrupt:
 699:/Users/davide/Documents/NQM_WORK/MinimizedBoard/Attiny48/i2ctest/CC1101/CC1101/cc1101q1.c **** #elif defined(MCUCR) && defined(ISC10) && defined(ISC11) && defined(GICR)
 700:/Users/davide/Documents/NQM_WORK/MinimizedBoard/Attiny48/i2ctest/CC1101/CC1101/cc1101q1.c ****                 MCUCR = (MCUCR & ~((1 << ISC10) | (1 << ISC11))) | (mode << ISC10);
 701:/Users/davide/Documents/NQM_WORK/MinimizedBoard/Attiny48/i2ctest/CC1101/CC1101/cc1101q1.c ****                 GICR |= (1 << INT1);
 702:/Users/davide/Documents/NQM_WORK/MinimizedBoard/Attiny48/i2ctest/CC1101/CC1101/cc1101q1.c **** #elif defined(MCUCR) && defined(ISC10) && defined(GIMSK) && defined(GIMSK)
 703:/Users/davide/Documents/NQM_WORK/MinimizedBoard/Attiny48/i2ctest/CC1101/CC1101/cc1101q1.c ****                 MCUCR = (MCUCR & ~((1 << ISC10) | (1 << ISC11))) | (mode << ISC10);
 704:/Users/davide/Documents/NQM_WORK/MinimizedBoard/Attiny48/i2ctest/CC1101/CC1101/cc1101q1.c ****                 GIMSK |= (1 << INT1);
 705:/Users/davide/Documents/NQM_WORK/MinimizedBoard/Attiny48/i2ctest/CC1101/CC1101/cc1101q1.c **** #else
 706:/Users/davide/Documents/NQM_WORK/MinimizedBoard/Attiny48/i2ctest/CC1101/CC1101/cc1101q1.c **** #warning attachInterrupt may need some more work for this cpu (case 1)
 707:/Users/davide/Documents/NQM_WORK/MinimizedBoard/Attiny48/i2ctest/CC1101/CC1101/cc1101q1.c **** #endif
 708:/Users/davide/Documents/NQM_WORK/MinimizedBoard/Attiny48/i2ctest/CC1101/CC1101/cc1101q1.c ****                 break;
 709:/Users/davide/Documents/NQM_WORK/MinimizedBoard/Attiny48/i2ctest/CC1101/CC1101/cc1101q1.c ****                 
 710:/Users/davide/Documents/NQM_WORK/MinimizedBoard/Attiny48/i2ctest/CC1101/CC1101/cc1101q1.c ****             case 2:
 711:/Users/davide/Documents/NQM_WORK/MinimizedBoard/Attiny48/i2ctest/CC1101/CC1101/cc1101q1.c **** #if defined(EICRA) && defined(ISC20) && defined(ISC21) && defined(EIMSK)
 712:/Users/davide/Documents/NQM_WORK/MinimizedBoard/Attiny48/i2ctest/CC1101/CC1101/cc1101q1.c ****                 EICRA = (EICRA & ~((1 << ISC20) | (1 << ISC21))) | (mode << ISC20);
 713:/Users/davide/Documents/NQM_WORK/MinimizedBoard/Attiny48/i2ctest/CC1101/CC1101/cc1101q1.c ****                 EIMSK |= (1 << INT2);
 714:/Users/davide/Documents/NQM_WORK/MinimizedBoard/Attiny48/i2ctest/CC1101/CC1101/cc1101q1.c **** #elif defined(MCUCR) && defined(ISC20) && defined(ISC21) && defined(GICR)
 715:/Users/davide/Documents/NQM_WORK/MinimizedBoard/Attiny48/i2ctest/CC1101/CC1101/cc1101q1.c ****                 MCUCR = (MCUCR & ~((1 << ISC20) | (1 << ISC21))) | (mode << ISC20);
 716:/Users/davide/Documents/NQM_WORK/MinimizedBoard/Attiny48/i2ctest/CC1101/CC1101/cc1101q1.c ****                 GICR |= (1 << INT2);
 717:/Users/davide/Documents/NQM_WORK/MinimizedBoard/Attiny48/i2ctest/CC1101/CC1101/cc1101q1.c **** #elif defined(MCUCR) && defined(ISC20) && defined(GIMSK) && defined(GIMSK)
 718:/Users/davide/Documents/NQM_WORK/MinimizedBoard/Attiny48/i2ctest/CC1101/CC1101/cc1101q1.c ****                 MCUCR = (MCUCR & ~((1 << ISC20) | (1 << ISC21))) | (mode << ISC20);
 719:/Users/davide/Documents/NQM_WORK/MinimizedBoard/Attiny48/i2ctest/CC1101/CC1101/cc1101q1.c ****                 GIMSK |= (1 << INT2);
 720:/Users/davide/Documents/NQM_WORK/MinimizedBoard/Attiny48/i2ctest/CC1101/CC1101/cc1101q1.c **** #endif
 721:/Users/davide/Documents/NQM_WORK/MinimizedBoard/Attiny48/i2ctest/CC1101/CC1101/cc1101q1.c ****                 break;
 722:/Users/davide/Documents/NQM_WORK/MinimizedBoard/Attiny48/i2ctest/CC1101/CC1101/cc1101q1.c **** #endif
 723:/Users/davide/Documents/NQM_WORK/MinimizedBoard/Attiny48/i2ctest/CC1101/CC1101/cc1101q1.c ****         }
 724:/Users/davide/Documents/NQM_WORK/MinimizedBoard/Attiny48/i2ctest/CC1101/CC1101/cc1101q1.c ****     }
 725:/Users/davide/Documents/NQM_WORK/MinimizedBoard/Attiny48/i2ctest/CC1101/CC1101/cc1101q1.c **** }
 726:/Users/davide/Documents/NQM_WORK/MinimizedBoard/Attiny48/i2ctest/CC1101/CC1101/cc1101q1.c **** 
 727:/Users/davide/Documents/NQM_WORK/MinimizedBoard/Attiny48/i2ctest/CC1101/CC1101/cc1101q1.c **** 
 728:/Users/davide/Documents/NQM_WORK/MinimizedBoard/Attiny48/i2ctest/CC1101/CC1101/cc1101q1.c **** 
 729:/Users/davide/Documents/NQM_WORK/MinimizedBoard/Attiny48/i2ctest/CC1101/CC1101/cc1101q1.c **** void Enable_Interrupt(uint8_t INT_NO)
 730:/Users/davide/Documents/NQM_WORK/MinimizedBoard/Attiny48/i2ctest/CC1101/CC1101/cc1101q1.c **** {
 1687               	.LM240:
 1688               	.LFBB24:
 1689               	/* prologue: function */
 1690               	/* frame size = 0 */
 1691               	/* stack size = 0 */
 1692               	.L__stack_usage = 0
 731:/Users/davide/Documents/NQM_WORK/MinimizedBoard/Attiny48/i2ctest/CC1101/CC1101/cc1101q1.c ****     switch(INT_NO)
 1694               	.LM241:
 1695 0552 8823      		tst r24
 1696 0554 01F0      		breq .L111
 1697 0556 8130      		cpi r24,lo8(1)
 1698 0558 01F0      		breq .L112
 1699 055a 0895      		ret
 1700               	.L111:
 732:/Users/davide/Documents/NQM_WORK/MinimizedBoard/Attiny48/i2ctest/CC1101/CC1101/cc1101q1.c ****     {
 733:/Users/davide/Documents/NQM_WORK/MinimizedBoard/Attiny48/i2ctest/CC1101/CC1101/cc1101q1.c ****         case 0:EIMSK|=(1<<INT0);
 1702               	.LM242:
 1703 055c E89A      		sbi 0x1d,0
 734:/Users/davide/Documents/NQM_WORK/MinimizedBoard/Attiny48/i2ctest/CC1101/CC1101/cc1101q1.c ****             break;
 1705               	.LM243:
 1706 055e 0895      		ret
 1707               	.L112:
 735:/Users/davide/Documents/NQM_WORK/MinimizedBoard/Attiny48/i2ctest/CC1101/CC1101/cc1101q1.c ****         case 1:EIMSK|=(1<<INT1);
 1709               	.LM244:
 1710 0560 E99A      		sbi 0x1d,1
 1711 0562 0895      		ret
 1713               	.Lscope24:
 1717               	.global	Enable_Pcinterrupt
 1719               	Enable_Pcinterrupt:
 736:/Users/davide/Documents/NQM_WORK/MinimizedBoard/Attiny48/i2ctest/CC1101/CC1101/cc1101q1.c ****             break;
 737:/Users/davide/Documents/NQM_WORK/MinimizedBoard/Attiny48/i2ctest/CC1101/CC1101/cc1101q1.c ****         default:break;
 738:/Users/davide/Documents/NQM_WORK/MinimizedBoard/Attiny48/i2ctest/CC1101/CC1101/cc1101q1.c ****     }
 739:/Users/davide/Documents/NQM_WORK/MinimizedBoard/Attiny48/i2ctest/CC1101/CC1101/cc1101q1.c **** }
 740:/Users/davide/Documents/NQM_WORK/MinimizedBoard/Attiny48/i2ctest/CC1101/CC1101/cc1101q1.c **** 
 741:/Users/davide/Documents/NQM_WORK/MinimizedBoard/Attiny48/i2ctest/CC1101/CC1101/cc1101q1.c **** /*! \brief This function enables the external pin change interrupt.
 742:/Users/davide/Documents/NQM_WORK/MinimizedBoard/Attiny48/i2ctest/CC1101/CC1101/cc1101q1.c ****  *
 743:/Users/davide/Documents/NQM_WORK/MinimizedBoard/Attiny48/i2ctest/CC1101/CC1101/cc1101q1.c ****  *  \param PCINT_NO	The pin change interrupt which has to be enabled.
 744:/Users/davide/Documents/NQM_WORK/MinimizedBoard/Attiny48/i2ctest/CC1101/CC1101/cc1101q1.c ****  */
 745:/Users/davide/Documents/NQM_WORK/MinimizedBoard/Attiny48/i2ctest/CC1101/CC1101/cc1101q1.c **** void Enable_Pcinterrupt(uint8_t PCINT_NO,void (*userFunc)(void))
 746:/Users/davide/Documents/NQM_WORK/MinimizedBoard/Attiny48/i2ctest/CC1101/CC1101/cc1101q1.c **** {
 1721               	.LM245:
 1722               	.LFBB25:
 1723               	/* prologue: function */
 1724               	/* frame size = 0 */
 1725               	/* stack size = 0 */
 1726               	.L__stack_usage = 0
 1727 0564 E82F      		mov r30,r24
 747:/Users/davide/Documents/NQM_WORK/MinimizedBoard/Attiny48/i2ctest/CC1101/CC1101/cc1101q1.c ****     intFunc[PCINT_NO] = userFunc;
 1729               	.LM246:
 1730 0566 A82F      		mov r26,r24
 1731 0568 B0E0      		ldi r27,0
 1732 056a AA0F      		lsl r26
 1733 056c BB1F      		rol r27
 1734 056e A050      		subi r26,lo8(-(intFunc))
 1735 0570 B040      		sbci r27,hi8(-(intFunc))
 1736 0572 1196      		adiw r26,1
 1737 0574 7C93      		st X,r23
 1738 0576 6E93      		st -X,r22
 748:/Users/davide/Documents/NQM_WORK/MinimizedBoard/Attiny48/i2ctest/CC1101/CC1101/cc1101q1.c ****     if(PCINT_NO>=0 && PCINT_NO<=7)
 1740               	.LM247:
 1741 0578 E830      		cpi r30,lo8(8)
 1742 057a 00F4      		brsh .L114
 749:/Users/davide/Documents/NQM_WORK/MinimizedBoard/Attiny48/i2ctest/CC1101/CC1101/cc1101q1.c ****     {
 750:/Users/davide/Documents/NQM_WORK/MinimizedBoard/Attiny48/i2ctest/CC1101/CC1101/cc1101q1.c ****         PCICR=(PCICR&(~(1<<PCIE0)))|(1<<PCIE0);
 1744               	.LM248:
 1745 057c 8091 6800 		lds r24,104
 1746 0580 8160      		ori r24,lo8(1)
 1747 0582 8093 6800 		sts 104,r24
 751:/Users/davide/Documents/NQM_WORK/MinimizedBoard/Attiny48/i2ctest/CC1101/CC1101/cc1101q1.c ****         
 752:/Users/davide/Documents/NQM_WORK/MinimizedBoard/Attiny48/i2ctest/CC1101/CC1101/cc1101q1.c ****         switch(PCINT_NO)
 1749               	.LM249:
 1750 0586 8E2F      		mov r24,r30
 1751 0588 90E0      		ldi r25,0
 1752 058a FC01      		movw r30,r24
 1753 058c 3197      		sbiw r30,1
 1754 058e E730      		cpi r30,7
 1755 0590 F105      		cpc r31,__zero_reg__
 1756 0592 00F4      		brsh .L115
 1757 0594 E050      		subi r30,lo8(-(gs(.L117)))
 1758 0596 F040      		sbci r31,hi8(-(gs(.L117)))
 753:/Users/davide/Documents/NQM_WORK/MinimizedBoard/Attiny48/i2ctest/CC1101/CC1101/cc1101q1.c ****         {
 754:/Users/davide/Documents/NQM_WORK/MinimizedBoard/Attiny48/i2ctest/CC1101/CC1101/cc1101q1.c ****             case 0:PCMSK0|=(1<<PCINT0);
 755:/Users/davide/Documents/NQM_WORK/MinimizedBoard/Attiny48/i2ctest/CC1101/CC1101/cc1101q1.c ****                 break;
 756:/Users/davide/Documents/NQM_WORK/MinimizedBoard/Attiny48/i2ctest/CC1101/CC1101/cc1101q1.c ****             case 1:PCMSK0|=(1<<PCINT1);
 757:/Users/davide/Documents/NQM_WORK/MinimizedBoard/Attiny48/i2ctest/CC1101/CC1101/cc1101q1.c ****                 break;
 758:/Users/davide/Documents/NQM_WORK/MinimizedBoard/Attiny48/i2ctest/CC1101/CC1101/cc1101q1.c ****             case 2:PCMSK0|=(1<<PCINT2);
 759:/Users/davide/Documents/NQM_WORK/MinimizedBoard/Attiny48/i2ctest/CC1101/CC1101/cc1101q1.c ****                 break;
 760:/Users/davide/Documents/NQM_WORK/MinimizedBoard/Attiny48/i2ctest/CC1101/CC1101/cc1101q1.c ****             case 3:PCMSK0|=(1<<PCINT3);
 761:/Users/davide/Documents/NQM_WORK/MinimizedBoard/Attiny48/i2ctest/CC1101/CC1101/cc1101q1.c ****                 break;
 762:/Users/davide/Documents/NQM_WORK/MinimizedBoard/Attiny48/i2ctest/CC1101/CC1101/cc1101q1.c ****             case 4:PCMSK0|=(1<<PCINT4);
 763:/Users/davide/Documents/NQM_WORK/MinimizedBoard/Attiny48/i2ctest/CC1101/CC1101/cc1101q1.c ****                 break;
 764:/Users/davide/Documents/NQM_WORK/MinimizedBoard/Attiny48/i2ctest/CC1101/CC1101/cc1101q1.c ****             case 5:PCMSK0|=(1<<PCINT5);
 765:/Users/davide/Documents/NQM_WORK/MinimizedBoard/Attiny48/i2ctest/CC1101/CC1101/cc1101q1.c ****                 break;
 766:/Users/davide/Documents/NQM_WORK/MinimizedBoard/Attiny48/i2ctest/CC1101/CC1101/cc1101q1.c ****             case 6:PCMSK0|=(1<<PCINT6);
 767:/Users/davide/Documents/NQM_WORK/MinimizedBoard/Attiny48/i2ctest/CC1101/CC1101/cc1101q1.c ****                 break;
 768:/Users/davide/Documents/NQM_WORK/MinimizedBoard/Attiny48/i2ctest/CC1101/CC1101/cc1101q1.c ****             case 7:PCMSK0|=(1<<PCINT7);
 1760               	.LM250:
 1761 0598 8091 6B00 		lds r24,107
 752:/Users/davide/Documents/NQM_WORK/MinimizedBoard/Attiny48/i2ctest/CC1101/CC1101/cc1101q1.c ****         {
 1763               	.LM251:
 1764 059c 0994      		ijmp
 1765               		.section	.progmem.gcc_sw_table,"ax",@progbits
 1766               		.p2align	1
 1767               	.L117:
 1768 0000 00C0      		rjmp .L116
 1769 0002 00C0      		rjmp .L118
 1770 0004 00C0      		rjmp .L119
 1771 0006 00C0      		rjmp .L120
 1772 0008 00C0      		rjmp .L121
 1773 000a 00C0      		rjmp .L122
 1774 000c 00C0      		rjmp .L123
 1775               		.text
 1776               	.L115:
 754:/Users/davide/Documents/NQM_WORK/MinimizedBoard/Attiny48/i2ctest/CC1101/CC1101/cc1101q1.c ****                 break;
 1778               	.LM252:
 1779 059e 8091 6B00 		lds r24,107
 1780 05a2 8160      		ori r24,lo8(1)
 1781 05a4 00C0      		rjmp .L151
 1782               	.L116:
 756:/Users/davide/Documents/NQM_WORK/MinimizedBoard/Attiny48/i2ctest/CC1101/CC1101/cc1101q1.c ****                 break;
 1784               	.LM253:
 1785 05a6 8260      		ori r24,lo8(2)
 1786               	.L151:
 1787 05a8 8093 6B00 		sts 107,r24
 757:/Users/davide/Documents/NQM_WORK/MinimizedBoard/Attiny48/i2ctest/CC1101/CC1101/cc1101q1.c ****             case 2:PCMSK0|=(1<<PCINT2);
 1789               	.LM254:
 1790 05ac 0895      		ret
 1791               	.L118:
 758:/Users/davide/Documents/NQM_WORK/MinimizedBoard/Attiny48/i2ctest/CC1101/CC1101/cc1101q1.c ****                 break;
 1793               	.LM255:
 1794 05ae 8460      		ori r24,lo8(4)
 1795 05b0 00C0      		rjmp .L151
 1796               	.L119:
 760:/Users/davide/Documents/NQM_WORK/MinimizedBoard/Attiny48/i2ctest/CC1101/CC1101/cc1101q1.c ****                 break;
 1798               	.LM256:
 1799 05b2 8860      		ori r24,lo8(8)
 1800 05b4 00C0      		rjmp .L151
 1801               	.L120:
 762:/Users/davide/Documents/NQM_WORK/MinimizedBoard/Attiny48/i2ctest/CC1101/CC1101/cc1101q1.c ****                 break;
 1803               	.LM257:
 1804 05b6 8061      		ori r24,lo8(16)
 1805 05b8 00C0      		rjmp .L151
 1806               	.L121:
 764:/Users/davide/Documents/NQM_WORK/MinimizedBoard/Attiny48/i2ctest/CC1101/CC1101/cc1101q1.c ****                 break;
 1808               	.LM258:
 1809 05ba 8062      		ori r24,lo8(32)
 1810 05bc 00C0      		rjmp .L151
 1811               	.L122:
 766:/Users/davide/Documents/NQM_WORK/MinimizedBoard/Attiny48/i2ctest/CC1101/CC1101/cc1101q1.c ****                 break;
 1813               	.LM259:
 1814 05be 8064      		ori r24,lo8(64)
 1815 05c0 00C0      		rjmp .L151
 1816               	.L123:
 1818               	.LM260:
 1819 05c2 8068      		ori r24,lo8(-128)
 1820 05c4 00C0      		rjmp .L151
 1821               	.L114:
 769:/Users/davide/Documents/NQM_WORK/MinimizedBoard/Attiny48/i2ctest/CC1101/CC1101/cc1101q1.c ****                 break;
 770:/Users/davide/Documents/NQM_WORK/MinimizedBoard/Attiny48/i2ctest/CC1101/CC1101/cc1101q1.c ****             default:break;
 771:/Users/davide/Documents/NQM_WORK/MinimizedBoard/Attiny48/i2ctest/CC1101/CC1101/cc1101q1.c ****         }
 772:/Users/davide/Documents/NQM_WORK/MinimizedBoard/Attiny48/i2ctest/CC1101/CC1101/cc1101q1.c ****     }
 773:/Users/davide/Documents/NQM_WORK/MinimizedBoard/Attiny48/i2ctest/CC1101/CC1101/cc1101q1.c ****     else if(PCINT_NO>=8 && PCINT_NO<=15)
 1823               	.LM261:
 1824 05c6 88EF      		ldi r24,lo8(-8)
 1825 05c8 8E0F      		add r24,r30
 1826 05ca 8830      		cpi r24,lo8(8)
 1827 05cc 00F4      		brsh .L125
 774:/Users/davide/Documents/NQM_WORK/MinimizedBoard/Attiny48/i2ctest/CC1101/CC1101/cc1101q1.c ****     {
 775:/Users/davide/Documents/NQM_WORK/MinimizedBoard/Attiny48/i2ctest/CC1101/CC1101/cc1101q1.c ****         PCICR=(PCICR&(~(1<<PCIE1)))|(1<<PCIE1);
 1829               	.LM262:
 1830 05ce 8091 6800 		lds r24,104
 1831 05d2 8260      		ori r24,lo8(2)
 1832 05d4 8093 6800 		sts 104,r24
 776:/Users/davide/Documents/NQM_WORK/MinimizedBoard/Attiny48/i2ctest/CC1101/CC1101/cc1101q1.c ****         
 777:/Users/davide/Documents/NQM_WORK/MinimizedBoard/Attiny48/i2ctest/CC1101/CC1101/cc1101q1.c ****         switch(PCINT_NO)
 1834               	.LM263:
 1835 05d8 8E2F      		mov r24,r30
 1836 05da 90E0      		ldi r25,0
 1837 05dc FC01      		movw r30,r24
 1838 05de 3997      		sbiw r30,9
 1839 05e0 E730      		cpi r30,7
 1840 05e2 F105      		cpc r31,__zero_reg__
 1841 05e4 00F4      		brsh .L126
 1842 05e6 E050      		subi r30,lo8(-(gs(.L128)))
 1843 05e8 F040      		sbci r31,hi8(-(gs(.L128)))
 778:/Users/davide/Documents/NQM_WORK/MinimizedBoard/Attiny48/i2ctest/CC1101/CC1101/cc1101q1.c ****         {
 779:/Users/davide/Documents/NQM_WORK/MinimizedBoard/Attiny48/i2ctest/CC1101/CC1101/cc1101q1.c ****             case 8:PCMSK1|=(1<<PCINT8);
 780:/Users/davide/Documents/NQM_WORK/MinimizedBoard/Attiny48/i2ctest/CC1101/CC1101/cc1101q1.c ****                 break;
 781:/Users/davide/Documents/NQM_WORK/MinimizedBoard/Attiny48/i2ctest/CC1101/CC1101/cc1101q1.c ****             case 9:PCMSK1|=(1<<PCINT9);
 782:/Users/davide/Documents/NQM_WORK/MinimizedBoard/Attiny48/i2ctest/CC1101/CC1101/cc1101q1.c ****                 break;
 783:/Users/davide/Documents/NQM_WORK/MinimizedBoard/Attiny48/i2ctest/CC1101/CC1101/cc1101q1.c ****             case 10:PCMSK1|=(1<<PCINT10);
 784:/Users/davide/Documents/NQM_WORK/MinimizedBoard/Attiny48/i2ctest/CC1101/CC1101/cc1101q1.c ****                 break;
 785:/Users/davide/Documents/NQM_WORK/MinimizedBoard/Attiny48/i2ctest/CC1101/CC1101/cc1101q1.c ****             case 11:PCMSK1|=(1<<PCINT11);
 786:/Users/davide/Documents/NQM_WORK/MinimizedBoard/Attiny48/i2ctest/CC1101/CC1101/cc1101q1.c ****                 break;
 787:/Users/davide/Documents/NQM_WORK/MinimizedBoard/Attiny48/i2ctest/CC1101/CC1101/cc1101q1.c ****             case 12:PCMSK1|=(1<<PCINT12);
 788:/Users/davide/Documents/NQM_WORK/MinimizedBoard/Attiny48/i2ctest/CC1101/CC1101/cc1101q1.c ****                 break;
 789:/Users/davide/Documents/NQM_WORK/MinimizedBoard/Attiny48/i2ctest/CC1101/CC1101/cc1101q1.c ****             case 13:PCMSK1|=(1<<PCINT13);
 790:/Users/davide/Documents/NQM_WORK/MinimizedBoard/Attiny48/i2ctest/CC1101/CC1101/cc1101q1.c ****                 break;
 791:/Users/davide/Documents/NQM_WORK/MinimizedBoard/Attiny48/i2ctest/CC1101/CC1101/cc1101q1.c ****             case 14:PCMSK1|=(1<<PCINT14);
 792:/Users/davide/Documents/NQM_WORK/MinimizedBoard/Attiny48/i2ctest/CC1101/CC1101/cc1101q1.c ****                 break;
 793:/Users/davide/Documents/NQM_WORK/MinimizedBoard/Attiny48/i2ctest/CC1101/CC1101/cc1101q1.c ****             case 15:PCMSK1|=(1<<PCINT15);
 1845               	.LM264:
 1846 05ea 8091 6C00 		lds r24,108
 777:/Users/davide/Documents/NQM_WORK/MinimizedBoard/Attiny48/i2ctest/CC1101/CC1101/cc1101q1.c ****         {
 1848               	.LM265:
 1849 05ee 0994      		ijmp
 1850               		.section	.progmem.gcc_sw_table,"ax",@progbits
 1851               		.p2align	1
 1852               	.L128:
 1853 000e 00C0      		rjmp .L127
 1854 0010 00C0      		rjmp .L129
 1855 0012 00C0      		rjmp .L130
 1856 0014 00C0      		rjmp .L131
 1857 0016 00C0      		rjmp .L132
 1858 0018 00C0      		rjmp .L133
 1859 001a 00C0      		rjmp .L134
 1860               		.text
 1861               	.L126:
 779:/Users/davide/Documents/NQM_WORK/MinimizedBoard/Attiny48/i2ctest/CC1101/CC1101/cc1101q1.c ****                 break;
 1863               	.LM266:
 1864 05f0 8091 6C00 		lds r24,108
 1865 05f4 8160      		ori r24,lo8(1)
 1866 05f6 00C0      		rjmp .L153
 1867               	.L127:
 781:/Users/davide/Documents/NQM_WORK/MinimizedBoard/Attiny48/i2ctest/CC1101/CC1101/cc1101q1.c ****                 break;
 1869               	.LM267:
 1870 05f8 8260      		ori r24,lo8(2)
 1871 05fa 00C0      		rjmp .L153
 1872               	.L129:
 783:/Users/davide/Documents/NQM_WORK/MinimizedBoard/Attiny48/i2ctest/CC1101/CC1101/cc1101q1.c ****                 break;
 1874               	.LM268:
 1875 05fc 8460      		ori r24,lo8(4)
 1876 05fe 00C0      		rjmp .L153
 1877               	.L130:
 785:/Users/davide/Documents/NQM_WORK/MinimizedBoard/Attiny48/i2ctest/CC1101/CC1101/cc1101q1.c ****                 break;
 1879               	.LM269:
 1880 0600 8860      		ori r24,lo8(8)
 1881 0602 00C0      		rjmp .L153
 1882               	.L131:
 787:/Users/davide/Documents/NQM_WORK/MinimizedBoard/Attiny48/i2ctest/CC1101/CC1101/cc1101q1.c ****                 break;
 1884               	.LM270:
 1885 0604 8061      		ori r24,lo8(16)
 1886 0606 00C0      		rjmp .L153
 1887               	.L132:
 789:/Users/davide/Documents/NQM_WORK/MinimizedBoard/Attiny48/i2ctest/CC1101/CC1101/cc1101q1.c ****                 break;
 1889               	.LM271:
 1890 0608 8062      		ori r24,lo8(32)
 1891 060a 00C0      		rjmp .L153
 1892               	.L133:
 791:/Users/davide/Documents/NQM_WORK/MinimizedBoard/Attiny48/i2ctest/CC1101/CC1101/cc1101q1.c ****                 break;
 1894               	.LM272:
 1895 060c 8064      		ori r24,lo8(64)
 1896 060e 00C0      		rjmp .L153
 1897               	.L134:
 1899               	.LM273:
 1900 0610 8068      		ori r24,lo8(-128)
 1901               	.L153:
 1902 0612 8093 6C00 		sts 108,r24
 794:/Users/davide/Documents/NQM_WORK/MinimizedBoard/Attiny48/i2ctest/CC1101/CC1101/cc1101q1.c ****                 break;
 1904               	.LM274:
 1905 0616 0895      		ret
 1906               	.L125:
 795:/Users/davide/Documents/NQM_WORK/MinimizedBoard/Attiny48/i2ctest/CC1101/CC1101/cc1101q1.c ****             default:break;
 796:/Users/davide/Documents/NQM_WORK/MinimizedBoard/Attiny48/i2ctest/CC1101/CC1101/cc1101q1.c ****         }
 797:/Users/davide/Documents/NQM_WORK/MinimizedBoard/Attiny48/i2ctest/CC1101/CC1101/cc1101q1.c ****     }
 798:/Users/davide/Documents/NQM_WORK/MinimizedBoard/Attiny48/i2ctest/CC1101/CC1101/cc1101q1.c ****     else if(PCINT_NO>=16 && PCINT_NO<=23)
 1908               	.LM275:
 1909 0618 80EF      		ldi r24,lo8(-16)
 1910 061a 8E0F      		add r24,r30
 1911 061c 8830      		cpi r24,lo8(8)
 1912 061e 00F4      		brsh .L135
 799:/Users/davide/Documents/NQM_WORK/MinimizedBoard/Attiny48/i2ctest/CC1101/CC1101/cc1101q1.c ****     {
 800:/Users/davide/Documents/NQM_WORK/MinimizedBoard/Attiny48/i2ctest/CC1101/CC1101/cc1101q1.c ****         PCICR=(PCICR&(~(1<<PCIE2)))|(1<<PCIE2);
 1914               	.LM276:
 1915 0620 8091 6800 		lds r24,104
 1916 0624 8460      		ori r24,lo8(4)
 1917 0626 8093 6800 		sts 104,r24
 801:/Users/davide/Documents/NQM_WORK/MinimizedBoard/Attiny48/i2ctest/CC1101/CC1101/cc1101q1.c ****         
 802:/Users/davide/Documents/NQM_WORK/MinimizedBoard/Attiny48/i2ctest/CC1101/CC1101/cc1101q1.c ****         switch(PCINT_NO)
 1919               	.LM277:
 1920 062a 8E2F      		mov r24,r30
 1921 062c 90E0      		ldi r25,0
 1922 062e FC01      		movw r30,r24
 1923 0630 7197      		sbiw r30,17
 1924 0632 E730      		cpi r30,7
 1925 0634 F105      		cpc r31,__zero_reg__
 1926 0636 00F4      		brsh .L136
 1927 0638 E050      		subi r30,lo8(-(gs(.L138)))
 1928 063a F040      		sbci r31,hi8(-(gs(.L138)))
 803:/Users/davide/Documents/NQM_WORK/MinimizedBoard/Attiny48/i2ctest/CC1101/CC1101/cc1101q1.c ****         {
 804:/Users/davide/Documents/NQM_WORK/MinimizedBoard/Attiny48/i2ctest/CC1101/CC1101/cc1101q1.c ****             case 16:PCMSK2|=(1<<PCINT16);
 805:/Users/davide/Documents/NQM_WORK/MinimizedBoard/Attiny48/i2ctest/CC1101/CC1101/cc1101q1.c ****                 break;
 806:/Users/davide/Documents/NQM_WORK/MinimizedBoard/Attiny48/i2ctest/CC1101/CC1101/cc1101q1.c ****             case 17:PCMSK2|=(1<<PCINT17);
 807:/Users/davide/Documents/NQM_WORK/MinimizedBoard/Attiny48/i2ctest/CC1101/CC1101/cc1101q1.c ****                 break;
 808:/Users/davide/Documents/NQM_WORK/MinimizedBoard/Attiny48/i2ctest/CC1101/CC1101/cc1101q1.c ****             case 18:PCMSK2|=(1<<PCINT18);
 809:/Users/davide/Documents/NQM_WORK/MinimizedBoard/Attiny48/i2ctest/CC1101/CC1101/cc1101q1.c ****                 break;
 810:/Users/davide/Documents/NQM_WORK/MinimizedBoard/Attiny48/i2ctest/CC1101/CC1101/cc1101q1.c ****             case 19:PCMSK2|=(1<<PCINT19);
 811:/Users/davide/Documents/NQM_WORK/MinimizedBoard/Attiny48/i2ctest/CC1101/CC1101/cc1101q1.c ****                 break;
 812:/Users/davide/Documents/NQM_WORK/MinimizedBoard/Attiny48/i2ctest/CC1101/CC1101/cc1101q1.c ****             case 20:PCMSK2|=(1<<PCINT20);
 813:/Users/davide/Documents/NQM_WORK/MinimizedBoard/Attiny48/i2ctest/CC1101/CC1101/cc1101q1.c ****                 break;
 814:/Users/davide/Documents/NQM_WORK/MinimizedBoard/Attiny48/i2ctest/CC1101/CC1101/cc1101q1.c ****             case 21:PCMSK2|=(1<<PCINT21);
 815:/Users/davide/Documents/NQM_WORK/MinimizedBoard/Attiny48/i2ctest/CC1101/CC1101/cc1101q1.c ****                 break;
 816:/Users/davide/Documents/NQM_WORK/MinimizedBoard/Attiny48/i2ctest/CC1101/CC1101/cc1101q1.c ****             case 22:PCMSK2|=(1<<PCINT22);
 817:/Users/davide/Documents/NQM_WORK/MinimizedBoard/Attiny48/i2ctest/CC1101/CC1101/cc1101q1.c ****                 break;
 818:/Users/davide/Documents/NQM_WORK/MinimizedBoard/Attiny48/i2ctest/CC1101/CC1101/cc1101q1.c ****             case 23:PCMSK2|=(1<<PCINT23);
 1930               	.LM278:
 1931 063c 8091 6D00 		lds r24,109
 802:/Users/davide/Documents/NQM_WORK/MinimizedBoard/Attiny48/i2ctest/CC1101/CC1101/cc1101q1.c ****         {
 1933               	.LM279:
 1934 0640 0994      		ijmp
 1935               		.section	.progmem.gcc_sw_table,"ax",@progbits
 1936               		.p2align	1
 1937               	.L138:
 1938 001c 00C0      		rjmp .L137
 1939 001e 00C0      		rjmp .L139
 1940 0020 00C0      		rjmp .L140
 1941 0022 00C0      		rjmp .L141
 1942 0024 00C0      		rjmp .L142
 1943 0026 00C0      		rjmp .L143
 1944 0028 00C0      		rjmp .L144
 1945               		.text
 1946               	.L136:
 804:/Users/davide/Documents/NQM_WORK/MinimizedBoard/Attiny48/i2ctest/CC1101/CC1101/cc1101q1.c ****                 break;
 1948               	.LM280:
 1949 0642 8091 6D00 		lds r24,109
 1950 0646 8160      		ori r24,lo8(1)
 1951 0648 00C0      		rjmp .L152
 1952               	.L137:
 806:/Users/davide/Documents/NQM_WORK/MinimizedBoard/Attiny48/i2ctest/CC1101/CC1101/cc1101q1.c ****                 break;
 1954               	.LM281:
 1955 064a 8260      		ori r24,lo8(2)
 1956 064c 00C0      		rjmp .L152
 1957               	.L139:
 808:/Users/davide/Documents/NQM_WORK/MinimizedBoard/Attiny48/i2ctest/CC1101/CC1101/cc1101q1.c ****                 break;
 1959               	.LM282:
 1960 064e 8460      		ori r24,lo8(4)
 1961 0650 00C0      		rjmp .L152
 1962               	.L140:
 810:/Users/davide/Documents/NQM_WORK/MinimizedBoard/Attiny48/i2ctest/CC1101/CC1101/cc1101q1.c ****                 break;
 1964               	.LM283:
 1965 0652 8860      		ori r24,lo8(8)
 1966 0654 00C0      		rjmp .L152
 1967               	.L141:
 812:/Users/davide/Documents/NQM_WORK/MinimizedBoard/Attiny48/i2ctest/CC1101/CC1101/cc1101q1.c ****                 break;
 1969               	.LM284:
 1970 0656 8061      		ori r24,lo8(16)
 1971 0658 00C0      		rjmp .L152
 1972               	.L142:
 814:/Users/davide/Documents/NQM_WORK/MinimizedBoard/Attiny48/i2ctest/CC1101/CC1101/cc1101q1.c ****                 break;
 1974               	.LM285:
 1975 065a 8062      		ori r24,lo8(32)
 1976 065c 00C0      		rjmp .L152
 1977               	.L143:
 816:/Users/davide/Documents/NQM_WORK/MinimizedBoard/Attiny48/i2ctest/CC1101/CC1101/cc1101q1.c ****                 break;
 1979               	.LM286:
 1980 065e 8064      		ori r24,lo8(64)
 1981 0660 00C0      		rjmp .L152
 1982               	.L144:
 1984               	.LM287:
 1985 0662 8068      		ori r24,lo8(-128)
 1986               	.L152:
 1987 0664 8093 6D00 		sts 109,r24
 819:/Users/davide/Documents/NQM_WORK/MinimizedBoard/Attiny48/i2ctest/CC1101/CC1101/cc1101q1.c ****                 break;
 1989               	.LM288:
 1990 0668 0895      		ret
 1991               	.L135:
 820:/Users/davide/Documents/NQM_WORK/MinimizedBoard/Attiny48/i2ctest/CC1101/CC1101/cc1101q1.c ****             default:break;
 821:/Users/davide/Documents/NQM_WORK/MinimizedBoard/Attiny48/i2ctest/CC1101/CC1101/cc1101q1.c ****         }
 822:/Users/davide/Documents/NQM_WORK/MinimizedBoard/Attiny48/i2ctest/CC1101/CC1101/cc1101q1.c ****     }
 823:/Users/davide/Documents/NQM_WORK/MinimizedBoard/Attiny48/i2ctest/CC1101/CC1101/cc1101q1.c ****     else
 824:/Users/davide/Documents/NQM_WORK/MinimizedBoard/Attiny48/i2ctest/CC1101/CC1101/cc1101q1.c ****     {
 825:/Users/davide/Documents/NQM_WORK/MinimizedBoard/Attiny48/i2ctest/CC1101/CC1101/cc1101q1.c ****         PCICR=(PCICR&(~(1<<PCIE3)))|(1<<PCIE3);
 1993               	.LM289:
 1994 066a 8091 6800 		lds r24,104
 1995 066e 8860      		ori r24,lo8(8)
 1996 0670 8093 6800 		sts 104,r24
 826:/Users/davide/Documents/NQM_WORK/MinimizedBoard/Attiny48/i2ctest/CC1101/CC1101/cc1101q1.c ****         
 827:/Users/davide/Documents/NQM_WORK/MinimizedBoard/Attiny48/i2ctest/CC1101/CC1101/cc1101q1.c ****         switch(PCINT_NO)
 1998               	.LM290:
 1999 0674 E931      		cpi r30,lo8(25)
 2000 0676 01F0      		breq .L145
 2001 0678 00F4      		brsh .L146
 2002 067a E831      		cpi r30,lo8(24)
 2003 067c 01F0      		breq .L147
 2004 067e 0895      		ret
 2005               	.L146:
 2006 0680 EA31      		cpi r30,lo8(26)
 2007 0682 01F0      		breq .L148
 2008 0684 EB31      		cpi r30,lo8(27)
 2009 0686 01F0      		breq .L149
 2010 0688 0895      		ret
 2011               	.L147:
 828:/Users/davide/Documents/NQM_WORK/MinimizedBoard/Attiny48/i2ctest/CC1101/CC1101/cc1101q1.c ****         {
 829:/Users/davide/Documents/NQM_WORK/MinimizedBoard/Attiny48/i2ctest/CC1101/CC1101/cc1101q1.c ****             case 24:PCMSK3|=(1<<PCINT24);
 2013               	.LM291:
 2014 068a 8091 6A00 		lds r24,106
 2015 068e 8160      		ori r24,lo8(1)
 2016 0690 00C0      		rjmp .L150
 2017               	.L145:
 830:/Users/davide/Documents/NQM_WORK/MinimizedBoard/Attiny48/i2ctest/CC1101/CC1101/cc1101q1.c ****                 break;
 831:/Users/davide/Documents/NQM_WORK/MinimizedBoard/Attiny48/i2ctest/CC1101/CC1101/cc1101q1.c ****             case 25:PCMSK3|=(1<<PCINT25);
 2019               	.LM292:
 2020 0692 8091 6A00 		lds r24,106
 2021 0696 8260      		ori r24,lo8(2)
 2022 0698 00C0      		rjmp .L150
 2023               	.L148:
 832:/Users/davide/Documents/NQM_WORK/MinimizedBoard/Attiny48/i2ctest/CC1101/CC1101/cc1101q1.c ****                 break;
 833:/Users/davide/Documents/NQM_WORK/MinimizedBoard/Attiny48/i2ctest/CC1101/CC1101/cc1101q1.c ****             case 26:PCMSK3|=(1<<PCINT26);
 2025               	.LM293:
 2026 069a 8091 6A00 		lds r24,106
 2027 069e 8460      		ori r24,lo8(4)
 2028 06a0 00C0      		rjmp .L150
 2029               	.L149:
 834:/Users/davide/Documents/NQM_WORK/MinimizedBoard/Attiny48/i2ctest/CC1101/CC1101/cc1101q1.c ****                 break;
 835:/Users/davide/Documents/NQM_WORK/MinimizedBoard/Attiny48/i2ctest/CC1101/CC1101/cc1101q1.c ****             case 27:PCMSK3|=(1<<PCINT27);
 2031               	.LM294:
 2032 06a2 8091 6A00 		lds r24,106
 2033 06a6 8860      		ori r24,lo8(8)
 2034               	.L150:
 2035 06a8 8093 6A00 		sts 106,r24
 2036 06ac 0895      		ret
 2038               	.Lscope25:
 2041               	.global	Disable_Interrupt
 2043               	Disable_Interrupt:
 836:/Users/davide/Documents/NQM_WORK/MinimizedBoard/Attiny48/i2ctest/CC1101/CC1101/cc1101q1.c ****                 break;
 837:/Users/davide/Documents/NQM_WORK/MinimizedBoard/Attiny48/i2ctest/CC1101/CC1101/cc1101q1.c ****             default:break;
 838:/Users/davide/Documents/NQM_WORK/MinimizedBoard/Attiny48/i2ctest/CC1101/CC1101/cc1101q1.c ****         }
 839:/Users/davide/Documents/NQM_WORK/MinimizedBoard/Attiny48/i2ctest/CC1101/CC1101/cc1101q1.c ****     }
 840:/Users/davide/Documents/NQM_WORK/MinimizedBoard/Attiny48/i2ctest/CC1101/CC1101/cc1101q1.c **** }
 841:/Users/davide/Documents/NQM_WORK/MinimizedBoard/Attiny48/i2ctest/CC1101/CC1101/cc1101q1.c **** 
 842:/Users/davide/Documents/NQM_WORK/MinimizedBoard/Attiny48/i2ctest/CC1101/CC1101/cc1101q1.c **** /*! \brief This function disables the external interrupt.
 843:/Users/davide/Documents/NQM_WORK/MinimizedBoard/Attiny48/i2ctest/CC1101/CC1101/cc1101q1.c ****  *
 844:/Users/davide/Documents/NQM_WORK/MinimizedBoard/Attiny48/i2ctest/CC1101/CC1101/cc1101q1.c ****  *  \param INT_NO	The interrupt which has to be disabled.
 845:/Users/davide/Documents/NQM_WORK/MinimizedBoard/Attiny48/i2ctest/CC1101/CC1101/cc1101q1.c ****  */
 846:/Users/davide/Documents/NQM_WORK/MinimizedBoard/Attiny48/i2ctest/CC1101/CC1101/cc1101q1.c **** void Disable_Interrupt(uint8_t INT_NO)
 847:/Users/davide/Documents/NQM_WORK/MinimizedBoard/Attiny48/i2ctest/CC1101/CC1101/cc1101q1.c **** {
 2045               	.LM295:
 2046               	.LFBB26:
 2047               	/* prologue: function */
 2048               	/* frame size = 0 */
 2049               	/* stack size = 0 */
 2050               	.L__stack_usage = 0
 848:/Users/davide/Documents/NQM_WORK/MinimizedBoard/Attiny48/i2ctest/CC1101/CC1101/cc1101q1.c ****     switch(INT_NO)
 2052               	.LM296:
 2053 06ae 8823      		tst r24
 2054 06b0 01F0      		breq .L156
 2055 06b2 8130      		cpi r24,lo8(1)
 2056 06b4 01F0      		breq .L157
 2057 06b6 0895      		ret
 2058               	.L156:
 849:/Users/davide/Documents/NQM_WORK/MinimizedBoard/Attiny48/i2ctest/CC1101/CC1101/cc1101q1.c ****     {
 850:/Users/davide/Documents/NQM_WORK/MinimizedBoard/Attiny48/i2ctest/CC1101/CC1101/cc1101q1.c ****         case 0:EIMSK=(EIMSK&(~(1<<INT0)));
 2060               	.LM297:
 2061 06b8 E898      		cbi 0x1d,0
 851:/Users/davide/Documents/NQM_WORK/MinimizedBoard/Attiny48/i2ctest/CC1101/CC1101/cc1101q1.c ****             break;
 2063               	.LM298:
 2064 06ba 0895      		ret
 2065               	.L157:
 852:/Users/davide/Documents/NQM_WORK/MinimizedBoard/Attiny48/i2ctest/CC1101/CC1101/cc1101q1.c ****         case 1:EIMSK=(EIMSK&(~(1<<INT1)));
 2067               	.LM299:
 2068 06bc E998      		cbi 0x1d,1
 2069 06be 0895      		ret
 2071               	.Lscope26:
 2074               	.global	Disable_Pcinterrupt
 2076               	Disable_Pcinterrupt:
 853:/Users/davide/Documents/NQM_WORK/MinimizedBoard/Attiny48/i2ctest/CC1101/CC1101/cc1101q1.c ****             break;
 854:/Users/davide/Documents/NQM_WORK/MinimizedBoard/Attiny48/i2ctest/CC1101/CC1101/cc1101q1.c ****         default:break;
 855:/Users/davide/Documents/NQM_WORK/MinimizedBoard/Attiny48/i2ctest/CC1101/CC1101/cc1101q1.c ****     }
 856:/Users/davide/Documents/NQM_WORK/MinimizedBoard/Attiny48/i2ctest/CC1101/CC1101/cc1101q1.c **** }
 857:/Users/davide/Documents/NQM_WORK/MinimizedBoard/Attiny48/i2ctest/CC1101/CC1101/cc1101q1.c **** 
 858:/Users/davide/Documents/NQM_WORK/MinimizedBoard/Attiny48/i2ctest/CC1101/CC1101/cc1101q1.c **** /*! \brief This function disables the external pin change interrupt.
 859:/Users/davide/Documents/NQM_WORK/MinimizedBoard/Attiny48/i2ctest/CC1101/CC1101/cc1101q1.c ****  *
 860:/Users/davide/Documents/NQM_WORK/MinimizedBoard/Attiny48/i2ctest/CC1101/CC1101/cc1101q1.c ****  *  \param PCINT_NO	The pin change interrupt which has to be disabled.
 861:/Users/davide/Documents/NQM_WORK/MinimizedBoard/Attiny48/i2ctest/CC1101/CC1101/cc1101q1.c ****  */
 862:/Users/davide/Documents/NQM_WORK/MinimizedBoard/Attiny48/i2ctest/CC1101/CC1101/cc1101q1.c **** void Disable_Pcinterrupt(uint8_t PCINT_NO)
 863:/Users/davide/Documents/NQM_WORK/MinimizedBoard/Attiny48/i2ctest/CC1101/CC1101/cc1101q1.c **** {
 2078               	.LM300:
 2079               	.LFBB27:
 2080               	/* prologue: function */
 2081               	/* frame size = 0 */
 2082               	/* stack size = 0 */
 2083               	.L__stack_usage = 0
 864:/Users/davide/Documents/NQM_WORK/MinimizedBoard/Attiny48/i2ctest/CC1101/CC1101/cc1101q1.c ****     switch(PCINT_NO)
 2085               	.LM301:
 2086 06c0 90E0      		ldi r25,0
 2087 06c2 8C31      		cpi r24,28
 2088 06c4 9105      		cpc r25,__zero_reg__
 2089 06c6 00F0      		brlo .+2
 2090 06c8 00C0      		rjmp .L159
 2091 06ca FC01      		movw r30,r24
 2092 06cc E050      		subi r30,lo8(-(gs(.L161)))
 2093 06ce F040      		sbci r31,hi8(-(gs(.L161)))
 2094 06d0 0994      		ijmp
 2095               		.section	.progmem.gcc_sw_table,"ax",@progbits
 2096               		.p2align	1
 2097               	.L161:
 2098 002a 00C0      		rjmp .L160
 2099 002c 00C0      		rjmp .L162
 2100 002e 00C0      		rjmp .L163
 2101 0030 00C0      		rjmp .L164
 2102 0032 00C0      		rjmp .L165
 2103 0034 00C0      		rjmp .L166
 2104 0036 00C0      		rjmp .L167
 2105 0038 00C0      		rjmp .L168
 2106 003a 00C0      		rjmp .L169
 2107 003c 00C0      		rjmp .L170
 2108 003e 00C0      		rjmp .L171
 2109 0040 00C0      		rjmp .L172
 2110 0042 00C0      		rjmp .L173
 2111 0044 00C0      		rjmp .L174
 2112 0046 00C0      		rjmp .L175
 2113 0048 00C0      		rjmp .L176
 2114 004a 00C0      		rjmp .L177
 2115 004c 00C0      		rjmp .L178
 2116 004e 00C0      		rjmp .L179
 2117 0050 00C0      		rjmp .L180
 2118 0052 00C0      		rjmp .L181
 2119 0054 00C0      		rjmp .L182
 2120 0056 00C0      		rjmp .L183
 2121 0058 00C0      		rjmp .L184
 2122 005a 00C0      		rjmp .L185
 2123 005c 00C0      		rjmp .L186
 2124 005e 00C0      		rjmp .L187
 2125 0060 00C0      		rjmp .L188
 2126               		.text
 2127               	.L160:
 865:/Users/davide/Documents/NQM_WORK/MinimizedBoard/Attiny48/i2ctest/CC1101/CC1101/cc1101q1.c ****     {
 866:/Users/davide/Documents/NQM_WORK/MinimizedBoard/Attiny48/i2ctest/CC1101/CC1101/cc1101q1.c ****         case 0:PCMSK0=(PCMSK0&(~(1<<PCINT0)));
 2129               	.LM302:
 2130 06d2 8091 6B00 		lds r24,107
 2131 06d6 8E7F      		andi r24,lo8(-2)
 2132 06d8 00C0      		rjmp .L193
 2133               	.L162:
 867:/Users/davide/Documents/NQM_WORK/MinimizedBoard/Attiny48/i2ctest/CC1101/CC1101/cc1101q1.c ****             break;
 868:/Users/davide/Documents/NQM_WORK/MinimizedBoard/Attiny48/i2ctest/CC1101/CC1101/cc1101q1.c ****         case 1:PCMSK0=(PCMSK0&(~(1<<PCINT1)));
 2135               	.LM303:
 2136 06da 8091 6B00 		lds r24,107
 2137 06de 8D7F      		andi r24,lo8(-3)
 2138               	.L193:
 2139 06e0 8093 6B00 		sts 107,r24
 869:/Users/davide/Documents/NQM_WORK/MinimizedBoard/Attiny48/i2ctest/CC1101/CC1101/cc1101q1.c ****             break;
 2141               	.LM304:
 2142 06e4 00C0      		rjmp .L159
 2143               	.L163:
 870:/Users/davide/Documents/NQM_WORK/MinimizedBoard/Attiny48/i2ctest/CC1101/CC1101/cc1101q1.c ****         case 2:PCMSK0=(PCMSK0&(~(1<<PCINT2)));
 2145               	.LM305:
 2146 06e6 8091 6B00 		lds r24,107
 2147 06ea 8B7F      		andi r24,lo8(-5)
 2148 06ec 00C0      		rjmp .L193
 2149               	.L164:
 871:/Users/davide/Documents/NQM_WORK/MinimizedBoard/Attiny48/i2ctest/CC1101/CC1101/cc1101q1.c ****             break;
 872:/Users/davide/Documents/NQM_WORK/MinimizedBoard/Attiny48/i2ctest/CC1101/CC1101/cc1101q1.c ****         case 3:PCMSK0=(PCMSK0&(~(1<<PCINT3)));
 2151               	.LM306:
 2152 06ee 8091 6B00 		lds r24,107
 2153 06f2 877F      		andi r24,lo8(-9)
 2154 06f4 00C0      		rjmp .L193
 2155               	.L165:
 873:/Users/davide/Documents/NQM_WORK/MinimizedBoard/Attiny48/i2ctest/CC1101/CC1101/cc1101q1.c ****             break;
 874:/Users/davide/Documents/NQM_WORK/MinimizedBoard/Attiny48/i2ctest/CC1101/CC1101/cc1101q1.c ****         case 4:PCMSK0=(PCMSK0&(~(1<<PCINT4)));
 2157               	.LM307:
 2158 06f6 8091 6B00 		lds r24,107
 2159 06fa 8F7E      		andi r24,lo8(-17)
 2160 06fc 00C0      		rjmp .L193
 2161               	.L166:
 875:/Users/davide/Documents/NQM_WORK/MinimizedBoard/Attiny48/i2ctest/CC1101/CC1101/cc1101q1.c ****             break;
 876:/Users/davide/Documents/NQM_WORK/MinimizedBoard/Attiny48/i2ctest/CC1101/CC1101/cc1101q1.c ****         case 5:PCMSK0=(PCMSK0&(~(1<<PCINT5)));
 2163               	.LM308:
 2164 06fe 8091 6B00 		lds r24,107
 2165 0702 8F7D      		andi r24,lo8(-33)
 2166 0704 00C0      		rjmp .L193
 2167               	.L167:
 877:/Users/davide/Documents/NQM_WORK/MinimizedBoard/Attiny48/i2ctest/CC1101/CC1101/cc1101q1.c ****             break;
 878:/Users/davide/Documents/NQM_WORK/MinimizedBoard/Attiny48/i2ctest/CC1101/CC1101/cc1101q1.c ****         case 6:PCMSK0=(PCMSK0&(~(1<<PCINT6)));
 2169               	.LM309:
 2170 0706 8091 6B00 		lds r24,107
 2171 070a 8F7B      		andi r24,lo8(-65)
 2172 070c 00C0      		rjmp .L193
 2173               	.L168:
 879:/Users/davide/Documents/NQM_WORK/MinimizedBoard/Attiny48/i2ctest/CC1101/CC1101/cc1101q1.c ****             break;
 880:/Users/davide/Documents/NQM_WORK/MinimizedBoard/Attiny48/i2ctest/CC1101/CC1101/cc1101q1.c ****         case 7:PCMSK0=(PCMSK0&(~(1<<PCINT7)));
 2175               	.LM310:
 2176 070e 8091 6B00 		lds r24,107
 2177 0712 8F77      		andi r24,lo8(127)
 2178 0714 00C0      		rjmp .L193
 2179               	.L169:
 881:/Users/davide/Documents/NQM_WORK/MinimizedBoard/Attiny48/i2ctest/CC1101/CC1101/cc1101q1.c ****             break;
 882:/Users/davide/Documents/NQM_WORK/MinimizedBoard/Attiny48/i2ctest/CC1101/CC1101/cc1101q1.c ****         case 8:PCMSK1=(PCMSK1&(~(1<<PCINT8)));
 2181               	.LM311:
 2182 0716 8091 6C00 		lds r24,108
 2183 071a 8E7F      		andi r24,lo8(-2)
 2184 071c 00C0      		rjmp .L196
 2185               	.L170:
 883:/Users/davide/Documents/NQM_WORK/MinimizedBoard/Attiny48/i2ctest/CC1101/CC1101/cc1101q1.c ****             break;
 884:/Users/davide/Documents/NQM_WORK/MinimizedBoard/Attiny48/i2ctest/CC1101/CC1101/cc1101q1.c ****         case 9:PCMSK1=(PCMSK1&(~(1<<PCINT9)));
 2187               	.LM312:
 2188 071e 8091 6C00 		lds r24,108
 2189 0722 8D7F      		andi r24,lo8(-3)
 2190 0724 00C0      		rjmp .L196
 2191               	.L171:
 885:/Users/davide/Documents/NQM_WORK/MinimizedBoard/Attiny48/i2ctest/CC1101/CC1101/cc1101q1.c ****             break;
 886:/Users/davide/Documents/NQM_WORK/MinimizedBoard/Attiny48/i2ctest/CC1101/CC1101/cc1101q1.c ****         case 10:PCMSK1=(PCMSK1&(~(1<<PCINT10)));
 2193               	.LM313:
 2194 0726 8091 6C00 		lds r24,108
 2195 072a 8B7F      		andi r24,lo8(-5)
 2196 072c 00C0      		rjmp .L196
 2197               	.L172:
 887:/Users/davide/Documents/NQM_WORK/MinimizedBoard/Attiny48/i2ctest/CC1101/CC1101/cc1101q1.c ****             break;
 888:/Users/davide/Documents/NQM_WORK/MinimizedBoard/Attiny48/i2ctest/CC1101/CC1101/cc1101q1.c ****         case 11:PCMSK1=(PCMSK1&(~(1<<PCINT11)));
 2199               	.LM314:
 2200 072e 8091 6C00 		lds r24,108
 2201 0732 877F      		andi r24,lo8(-9)
 2202 0734 00C0      		rjmp .L196
 2203               	.L173:
 889:/Users/davide/Documents/NQM_WORK/MinimizedBoard/Attiny48/i2ctest/CC1101/CC1101/cc1101q1.c ****             break;
 890:/Users/davide/Documents/NQM_WORK/MinimizedBoard/Attiny48/i2ctest/CC1101/CC1101/cc1101q1.c ****         case 12:PCMSK1=(PCMSK1&(~(1<<PCINT12)));
 2205               	.LM315:
 2206 0736 8091 6C00 		lds r24,108
 2207 073a 8F7E      		andi r24,lo8(-17)
 2208 073c 00C0      		rjmp .L196
 2209               	.L174:
 891:/Users/davide/Documents/NQM_WORK/MinimizedBoard/Attiny48/i2ctest/CC1101/CC1101/cc1101q1.c ****             break;
 892:/Users/davide/Documents/NQM_WORK/MinimizedBoard/Attiny48/i2ctest/CC1101/CC1101/cc1101q1.c ****         case 13:PCMSK1=(PCMSK1&(~(1<<PCINT13)));
 2211               	.LM316:
 2212 073e 8091 6C00 		lds r24,108
 2213 0742 8F7D      		andi r24,lo8(-33)
 2214 0744 00C0      		rjmp .L196
 2215               	.L175:
 893:/Users/davide/Documents/NQM_WORK/MinimizedBoard/Attiny48/i2ctest/CC1101/CC1101/cc1101q1.c ****             break;
 894:/Users/davide/Documents/NQM_WORK/MinimizedBoard/Attiny48/i2ctest/CC1101/CC1101/cc1101q1.c ****         case 14:PCMSK1=(PCMSK1&(~(1<<PCINT14)));
 2217               	.LM317:
 2218 0746 8091 6C00 		lds r24,108
 2219 074a 8F7B      		andi r24,lo8(-65)
 2220 074c 00C0      		rjmp .L196
 2221               	.L176:
 895:/Users/davide/Documents/NQM_WORK/MinimizedBoard/Attiny48/i2ctest/CC1101/CC1101/cc1101q1.c ****             break;
 896:/Users/davide/Documents/NQM_WORK/MinimizedBoard/Attiny48/i2ctest/CC1101/CC1101/cc1101q1.c ****         case 15:PCMSK1=(PCMSK1&(~(1<<PCINT15)));
 2223               	.LM318:
 2224 074e 8091 6C00 		lds r24,108
 2225 0752 8F77      		andi r24,lo8(127)
 2226               	.L196:
 2227 0754 8093 6C00 		sts 108,r24
 897:/Users/davide/Documents/NQM_WORK/MinimizedBoard/Attiny48/i2ctest/CC1101/CC1101/cc1101q1.c ****             break;
 2229               	.LM319:
 2230 0758 00C0      		rjmp .L159
 2231               	.L177:
 898:/Users/davide/Documents/NQM_WORK/MinimizedBoard/Attiny48/i2ctest/CC1101/CC1101/cc1101q1.c ****         case 16:PCMSK2=(PCMSK2&(~(1<<PCINT16)));
 2233               	.LM320:
 2234 075a 8091 6D00 		lds r24,109
 2235 075e 8E7F      		andi r24,lo8(-2)
 2236 0760 00C0      		rjmp .L195
 2237               	.L178:
 899:/Users/davide/Documents/NQM_WORK/MinimizedBoard/Attiny48/i2ctest/CC1101/CC1101/cc1101q1.c ****             break;
 900:/Users/davide/Documents/NQM_WORK/MinimizedBoard/Attiny48/i2ctest/CC1101/CC1101/cc1101q1.c ****         case 17:PCMSK2=(PCMSK2&(~(1<<PCINT17)));
 2239               	.LM321:
 2240 0762 8091 6D00 		lds r24,109
 2241 0766 8D7F      		andi r24,lo8(-3)
 2242 0768 00C0      		rjmp .L195
 2243               	.L179:
 901:/Users/davide/Documents/NQM_WORK/MinimizedBoard/Attiny48/i2ctest/CC1101/CC1101/cc1101q1.c ****             break;
 902:/Users/davide/Documents/NQM_WORK/MinimizedBoard/Attiny48/i2ctest/CC1101/CC1101/cc1101q1.c ****         case 18:PCMSK2=(PCMSK2&(~(1<<PCINT18)));
 2245               	.LM322:
 2246 076a 8091 6D00 		lds r24,109
 2247 076e 8B7F      		andi r24,lo8(-5)
 2248 0770 00C0      		rjmp .L195
 2249               	.L180:
 903:/Users/davide/Documents/NQM_WORK/MinimizedBoard/Attiny48/i2ctest/CC1101/CC1101/cc1101q1.c ****             break;
 904:/Users/davide/Documents/NQM_WORK/MinimizedBoard/Attiny48/i2ctest/CC1101/CC1101/cc1101q1.c ****         case 19:PCMSK2=(PCMSK2&(~(1<<PCINT19)));
 2251               	.LM323:
 2252 0772 8091 6D00 		lds r24,109
 2253 0776 877F      		andi r24,lo8(-9)
 2254 0778 00C0      		rjmp .L195
 2255               	.L181:
 905:/Users/davide/Documents/NQM_WORK/MinimizedBoard/Attiny48/i2ctest/CC1101/CC1101/cc1101q1.c ****             break;
 906:/Users/davide/Documents/NQM_WORK/MinimizedBoard/Attiny48/i2ctest/CC1101/CC1101/cc1101q1.c ****         case 20:PCMSK2=(PCMSK2&(~(1<<PCINT20)));
 2257               	.LM324:
 2258 077a 8091 6D00 		lds r24,109
 2259 077e 8F7E      		andi r24,lo8(-17)
 2260 0780 00C0      		rjmp .L195
 2261               	.L182:
 907:/Users/davide/Documents/NQM_WORK/MinimizedBoard/Attiny48/i2ctest/CC1101/CC1101/cc1101q1.c ****             break;
 908:/Users/davide/Documents/NQM_WORK/MinimizedBoard/Attiny48/i2ctest/CC1101/CC1101/cc1101q1.c ****         case 21:PCMSK2=(PCMSK2&(~(1<<PCINT21)));
 2263               	.LM325:
 2264 0782 8091 6D00 		lds r24,109
 2265 0786 8F7D      		andi r24,lo8(-33)
 2266 0788 00C0      		rjmp .L195
 2267               	.L183:
 909:/Users/davide/Documents/NQM_WORK/MinimizedBoard/Attiny48/i2ctest/CC1101/CC1101/cc1101q1.c ****             break;
 910:/Users/davide/Documents/NQM_WORK/MinimizedBoard/Attiny48/i2ctest/CC1101/CC1101/cc1101q1.c ****         case 22:PCMSK2=(PCMSK2&(~(1<<PCINT22)));
 2269               	.LM326:
 2270 078a 8091 6D00 		lds r24,109
 2271 078e 8F7B      		andi r24,lo8(-65)
 2272 0790 00C0      		rjmp .L195
 2273               	.L184:
 911:/Users/davide/Documents/NQM_WORK/MinimizedBoard/Attiny48/i2ctest/CC1101/CC1101/cc1101q1.c ****             break;
 912:/Users/davide/Documents/NQM_WORK/MinimizedBoard/Attiny48/i2ctest/CC1101/CC1101/cc1101q1.c ****         case 23:PCMSK2=(PCMSK2&(~(1<<PCINT23)));
 2275               	.LM327:
 2276 0792 8091 6D00 		lds r24,109
 2277 0796 8F77      		andi r24,lo8(127)
 2278               	.L195:
 2279 0798 8093 6D00 		sts 109,r24
 913:/Users/davide/Documents/NQM_WORK/MinimizedBoard/Attiny48/i2ctest/CC1101/CC1101/cc1101q1.c ****             break;
 2281               	.LM328:
 2282 079c 00C0      		rjmp .L159
 2283               	.L185:
 914:/Users/davide/Documents/NQM_WORK/MinimizedBoard/Attiny48/i2ctest/CC1101/CC1101/cc1101q1.c ****         case 24:PCMSK3=(PCMSK3&(~(1<<PCINT24)));
 2285               	.LM329:
 2286 079e 8091 6A00 		lds r24,106
 2287 07a2 8E7F      		andi r24,lo8(-2)
 2288 07a4 00C0      		rjmp .L194
 2289               	.L186:
 915:/Users/davide/Documents/NQM_WORK/MinimizedBoard/Attiny48/i2ctest/CC1101/CC1101/cc1101q1.c ****             break;
 916:/Users/davide/Documents/NQM_WORK/MinimizedBoard/Attiny48/i2ctest/CC1101/CC1101/cc1101q1.c ****         case 25:PCMSK3=(PCMSK3&(~(1<<PCINT25)));
 2291               	.LM330:
 2292 07a6 8091 6A00 		lds r24,106
 2293 07aa 8D7F      		andi r24,lo8(-3)
 2294 07ac 00C0      		rjmp .L194
 2295               	.L187:
 917:/Users/davide/Documents/NQM_WORK/MinimizedBoard/Attiny48/i2ctest/CC1101/CC1101/cc1101q1.c ****             break;
 918:/Users/davide/Documents/NQM_WORK/MinimizedBoard/Attiny48/i2ctest/CC1101/CC1101/cc1101q1.c ****         case 26:PCMSK3=(PCMSK3&(~(1<<PCINT26)));
 2297               	.LM331:
 2298 07ae 8091 6A00 		lds r24,106
 2299 07b2 8B7F      		andi r24,lo8(-5)
 2300 07b4 00C0      		rjmp .L194
 2301               	.L188:
 919:/Users/davide/Documents/NQM_WORK/MinimizedBoard/Attiny48/i2ctest/CC1101/CC1101/cc1101q1.c ****             break;
 920:/Users/davide/Documents/NQM_WORK/MinimizedBoard/Attiny48/i2ctest/CC1101/CC1101/cc1101q1.c ****         case 27:PCMSK3=(PCMSK3&(~(1<<PCINT27)));
 2303               	.LM332:
 2304 07b6 8091 6A00 		lds r24,106
 2305 07ba 877F      		andi r24,lo8(-9)
 2306               	.L194:
 2307 07bc 8093 6A00 		sts 106,r24
 2308               	.L159:
 921:/Users/davide/Documents/NQM_WORK/MinimizedBoard/Attiny48/i2ctest/CC1101/CC1101/cc1101q1.c ****             break;
 922:/Users/davide/Documents/NQM_WORK/MinimizedBoard/Attiny48/i2ctest/CC1101/CC1101/cc1101q1.c ****         default:break;
 923:/Users/davide/Documents/NQM_WORK/MinimizedBoard/Attiny48/i2ctest/CC1101/CC1101/cc1101q1.c ****     }
 924:/Users/davide/Documents/NQM_WORK/MinimizedBoard/Attiny48/i2ctest/CC1101/CC1101/cc1101q1.c ****     
 925:/Users/davide/Documents/NQM_WORK/MinimizedBoard/Attiny48/i2ctest/CC1101/CC1101/cc1101q1.c ****     if(PCMSK0 == 0x00)
 2310               	.LM333:
 2311 07c0 8091 6B00 		lds r24,107
 2312 07c4 8111      		cpse r24,__zero_reg__
 2313 07c6 00C0      		rjmp .L189
 926:/Users/davide/Documents/NQM_WORK/MinimizedBoard/Attiny48/i2ctest/CC1101/CC1101/cc1101q1.c ****     {
 927:/Users/davide/Documents/NQM_WORK/MinimizedBoard/Attiny48/i2ctest/CC1101/CC1101/cc1101q1.c ****         PCICR=(PCICR&(~(1<<PCIE0)));
 2315               	.LM334:
 2316 07c8 8091 6800 		lds r24,104
 2317 07cc 8E7F      		andi r24,lo8(-2)
 2318 07ce 00C0      		rjmp .L197
 2319               	.L189:
 928:/Users/davide/Documents/NQM_WORK/MinimizedBoard/Attiny48/i2ctest/CC1101/CC1101/cc1101q1.c ****     }
 929:/Users/davide/Documents/NQM_WORK/MinimizedBoard/Attiny48/i2ctest/CC1101/CC1101/cc1101q1.c ****     else if(PCMSK1 == 0x00)
 2321               	.LM335:
 2322 07d0 8091 6C00 		lds r24,108
 2323 07d4 8111      		cpse r24,__zero_reg__
 2324 07d6 00C0      		rjmp .L191
 930:/Users/davide/Documents/NQM_WORK/MinimizedBoard/Attiny48/i2ctest/CC1101/CC1101/cc1101q1.c ****     {
 931:/Users/davide/Documents/NQM_WORK/MinimizedBoard/Attiny48/i2ctest/CC1101/CC1101/cc1101q1.c ****         PCICR=(PCICR&(~(1<<PCIE1)));
 2326               	.LM336:
 2327 07d8 8091 6800 		lds r24,104
 2328 07dc 8D7F      		andi r24,lo8(-3)
 2329 07de 00C0      		rjmp .L197
 2330               	.L191:
 932:/Users/davide/Documents/NQM_WORK/MinimizedBoard/Attiny48/i2ctest/CC1101/CC1101/cc1101q1.c ****     }
 933:/Users/davide/Documents/NQM_WORK/MinimizedBoard/Attiny48/i2ctest/CC1101/CC1101/cc1101q1.c ****     else if(PCMSK2 == 0x00)
 2332               	.LM337:
 2333 07e0 8091 6D00 		lds r24,109
 2334 07e4 8111      		cpse r24,__zero_reg__
 2335 07e6 00C0      		rjmp .L192
 934:/Users/davide/Documents/NQM_WORK/MinimizedBoard/Attiny48/i2ctest/CC1101/CC1101/cc1101q1.c ****     {
 935:/Users/davide/Documents/NQM_WORK/MinimizedBoard/Attiny48/i2ctest/CC1101/CC1101/cc1101q1.c ****         PCICR=(PCICR&(~(1<<PCIE2)));
 2337               	.LM338:
 2338 07e8 8091 6800 		lds r24,104
 2339 07ec 8B7F      		andi r24,lo8(-5)
 2340 07ee 00C0      		rjmp .L197
 2341               	.L192:
 936:/Users/davide/Documents/NQM_WORK/MinimizedBoard/Attiny48/i2ctest/CC1101/CC1101/cc1101q1.c ****     }
 937:/Users/davide/Documents/NQM_WORK/MinimizedBoard/Attiny48/i2ctest/CC1101/CC1101/cc1101q1.c ****     else if(PCMSK3 == 0x00)
 2343               	.LM339:
 2344 07f0 8091 6A00 		lds r24,106
 2345 07f4 8111      		cpse r24,__zero_reg__
 2346 07f6 00C0      		rjmp .L158
 938:/Users/davide/Documents/NQM_WORK/MinimizedBoard/Attiny48/i2ctest/CC1101/CC1101/cc1101q1.c ****     {
 939:/Users/davide/Documents/NQM_WORK/MinimizedBoard/Attiny48/i2ctest/CC1101/CC1101/cc1101q1.c ****         PCICR=(PCICR&(~(1<<PCIE3)));
 2348               	.LM340:
 2349 07f8 8091 6800 		lds r24,104
 2350 07fc 877F      		andi r24,lo8(-9)
 2351               	.L197:
 2352 07fe 8093 6800 		sts 104,r24
 2353               	.L158:
 2354 0802 0895      		ret
 2356               	.Lscope27:
 2357               		.local	intFunc
 2358               		.comm	intFunc,48,1
 2359               		.comm	devAddress,1,1
 2360               		.comm	syncWord,2,1
 2361               		.comm	channel,1,1
 2362               		.comm	carrierFreq,1,1
 2363               		.comm	paTableByte,1,1
 2364               		.comm	rfState,1,1
 2365               		.comm	CCPACKET,65,1
 2375               	.Letext0:
 2376               		.ident	"GCC: (GNU) 4.9.3"
 2377               	.global __do_clear_bss
DEFINED SYMBOLS
                            *ABS*:0000000000000000 cc1101q1.c
/var/folders/fc/8p1lqrrj7p3f4bt9djyny4yh0000gn/T//ccMkEaVe.s:2      *ABS*:000000000000003e __SP_H__
/var/folders/fc/8p1lqrrj7p3f4bt9djyny4yh0000gn/T//ccMkEaVe.s:3      *ABS*:000000000000003d __SP_L__
/var/folders/fc/8p1lqrrj7p3f4bt9djyny4yh0000gn/T//ccMkEaVe.s:4      *ABS*:000000000000003f __SREG__
/var/folders/fc/8p1lqrrj7p3f4bt9djyny4yh0000gn/T//ccMkEaVe.s:5      *ABS*:0000000000000000 __tmp_reg__
/var/folders/fc/8p1lqrrj7p3f4bt9djyny4yh0000gn/T//ccMkEaVe.s:6      *ABS*:0000000000000001 __zero_reg__
/var/folders/fc/8p1lqrrj7p3f4bt9djyny4yh0000gn/T//ccMkEaVe.s:128    .text:0000000000000000 CC1101
                            *COM*:0000000000000001 paTableByte
/var/folders/fc/8p1lqrrj7p3f4bt9djyny4yh0000gn/T//ccMkEaVe.s:146    .text:0000000000000008 wakeUp
/var/folders/fc/8p1lqrrj7p3f4bt9djyny4yh0000gn/T//ccMkEaVe.s:171    .text:0000000000000012 spiinit
/var/folders/fc/8p1lqrrj7p3f4bt9djyny4yh0000gn/T//ccMkEaVe.s:216    .text:0000000000000034 spisend
/var/folders/fc/8p1lqrrj7p3f4bt9djyny4yh0000gn/T//ccMkEaVe.s:246    .text:0000000000000040 writeReg
/var/folders/fc/8p1lqrrj7p3f4bt9djyny4yh0000gn/T//ccMkEaVe.s:294    .text:0000000000000064 setSyncWord
                            *COM*:0000000000000002 syncWord
/var/folders/fc/8p1lqrrj7p3f4bt9djyny4yh0000gn/T//ccMkEaVe.s:382    .text:00000000000000b6 setSyncWordbytes
/var/folders/fc/8p1lqrrj7p3f4bt9djyny4yh0000gn/T//ccMkEaVe.s:404    .text:00000000000000c0 setDevAddress
                            *COM*:0000000000000001 devAddress
/var/folders/fc/8p1lqrrj7p3f4bt9djyny4yh0000gn/T//ccMkEaVe.s:468    .text:00000000000000f0 setChannel
                            *COM*:0000000000000001 channel
/var/folders/fc/8p1lqrrj7p3f4bt9djyny4yh0000gn/T//ccMkEaVe.s:530    .text:0000000000000120 setRegsFromEeprom
/var/folders/fc/8p1lqrrj7p3f4bt9djyny4yh0000gn/T//ccMkEaVe.s:615    .text:000000000000016a setCarrierFreq
                            *COM*:0000000000000001 carrierFreq
/var/folders/fc/8p1lqrrj7p3f4bt9djyny4yh0000gn/T//ccMkEaVe.s:690    .text:00000000000001b0 setDefaultRegs
/var/folders/fc/8p1lqrrj7p3f4bt9djyny4yh0000gn/T//ccMkEaVe.s:925    .text:00000000000002b8 writeBurstReg
/var/folders/fc/8p1lqrrj7p3f4bt9djyny4yh0000gn/T//ccMkEaVe.s:1005   .text:000000000000030a cmdStrobe
/var/folders/fc/8p1lqrrj7p3f4bt9djyny4yh0000gn/T//ccMkEaVe.s:1033   .text:0000000000000316 setPowerDownState
/var/folders/fc/8p1lqrrj7p3f4bt9djyny4yh0000gn/T//ccMkEaVe.s:1056   .text:000000000000031e readReg
/var/folders/fc/8p1lqrrj7p3f4bt9djyny4yh0000gn/T//ccMkEaVe.s:1097   .text:0000000000000330 sendData
                            *COM*:0000000000000001 rfState
/var/folders/fc/8p1lqrrj7p3f4bt9djyny4yh0000gn/T//ccMkEaVe.s:1283   .text:00000000000003f4 readBurstReg
/var/folders/fc/8p1lqrrj7p3f4bt9djyny4yh0000gn/T//ccMkEaVe.s:1365   .text:000000000000044a receiveData
/var/folders/fc/8p1lqrrj7p3f4bt9djyny4yh0000gn/T//ccMkEaVe.s:1471   .text:00000000000004bc reset
/var/folders/fc/8p1lqrrj7p3f4bt9djyny4yh0000gn/T//ccMkEaVe.s:1567   .text:00000000000004fa init
/var/folders/fc/8p1lqrrj7p3f4bt9djyny4yh0000gn/T//ccMkEaVe.s:1594   .text:0000000000000508 spiread
/var/folders/fc/8p1lqrrj7p3f4bt9djyny4yh0000gn/T//ccMkEaVe.s:1625   .text:0000000000000512 attachInterrupt
                             .bss:0000000000000000 intFunc
/var/folders/fc/8p1lqrrj7p3f4bt9djyny4yh0000gn/T//ccMkEaVe.s:1685   .text:0000000000000552 Enable_Interrupt
/var/folders/fc/8p1lqrrj7p3f4bt9djyny4yh0000gn/T//ccMkEaVe.s:1719   .text:0000000000000564 Enable_Pcinterrupt
/var/folders/fc/8p1lqrrj7p3f4bt9djyny4yh0000gn/T//ccMkEaVe.s:2043   .text:00000000000006ae Disable_Interrupt
/var/folders/fc/8p1lqrrj7p3f4bt9djyny4yh0000gn/T//ccMkEaVe.s:2076   .text:00000000000006c0 Disable_Pcinterrupt
                            *COM*:0000000000000041 CCPACKET

UNDEFINED SYMBOLS
__eewr_byte_tn48
__eerd_byte_tn48
__do_clear_bss
